
avrMCU.elf:     file format elf32-avr

Sections:
Idx Name          Size      VMA       LMA       File off  Algn
  0 .data         00000b22  00800100  0000170e  00001782  2**0
                  CONTENTS, ALLOC, LOAD, DATA
  1 .text         0000170e  00000000  00000000  00000074  2**1
                  CONTENTS, ALLOC, LOAD, READONLY, CODE
  2 .comment      00000030  00000000  00000000  000022a4  2**0
                  CONTENTS, READONLY
  3 .note.gnu.avr.deviceinfo 0000003c  00000000  00000000  000022d4  2**2
                  CONTENTS, READONLY
  4 .debug_info   00000780  00000000  00000000  00002310  2**0
                  CONTENTS, READONLY, DEBUGGING
  5 .debug_abbrev 00000718  00000000  00000000  00002a90  2**0
                  CONTENTS, READONLY, DEBUGGING
  6 .debug_line   0000016a  00000000  00000000  000031a8  2**0
                  CONTENTS, READONLY, DEBUGGING
  7 .debug_str    0000027d  00000000  00000000  00003312  2**0
                  CONTENTS, READONLY, DEBUGGING

Disassembly of section .text:

00000000 <__vectors>:
       0:	0c 94 a0 08 	jmp	0x1140	; 0x1140 <__ctors_end>
       4:	0c 94 b5 08 	jmp	0x116a	; 0x116a <__bad_interrupt>
       8:	0c 94 b5 08 	jmp	0x116a	; 0x116a <__bad_interrupt>
       c:	0c 94 b5 08 	jmp	0x116a	; 0x116a <__bad_interrupt>
      10:	0c 94 b5 08 	jmp	0x116a	; 0x116a <__bad_interrupt>
      14:	0c 94 b5 08 	jmp	0x116a	; 0x116a <__bad_interrupt>
      18:	0c 94 b5 08 	jmp	0x116a	; 0x116a <__bad_interrupt>
      1c:	0c 94 b5 08 	jmp	0x116a	; 0x116a <__bad_interrupt>
      20:	0c 94 b5 08 	jmp	0x116a	; 0x116a <__bad_interrupt>
      24:	0c 94 b5 08 	jmp	0x116a	; 0x116a <__bad_interrupt>
      28:	0c 94 b5 08 	jmp	0x116a	; 0x116a <__bad_interrupt>
      2c:	0c 94 b5 08 	jmp	0x116a	; 0x116a <__bad_interrupt>
      30:	0c 94 b5 08 	jmp	0x116a	; 0x116a <__bad_interrupt>
      34:	0c 94 b5 08 	jmp	0x116a	; 0x116a <__bad_interrupt>
      38:	0c 94 b5 08 	jmp	0x116a	; 0x116a <__bad_interrupt>
      3c:	0c 94 b5 08 	jmp	0x116a	; 0x116a <__bad_interrupt>
      40:	0c 94 b5 08 	jmp	0x116a	; 0x116a <__bad_interrupt>
      44:	0c 94 b5 08 	jmp	0x116a	; 0x116a <__bad_interrupt>
      48:	0c 94 b5 08 	jmp	0x116a	; 0x116a <__bad_interrupt>
      4c:	0c 94 b5 08 	jmp	0x116a	; 0x116a <__bad_interrupt>
      50:	0c 94 b5 08 	jmp	0x116a	; 0x116a <__bad_interrupt>
      54:	0c 94 b5 08 	jmp	0x116a	; 0x116a <__bad_interrupt>
      58:	0c 94 b5 08 	jmp	0x116a	; 0x116a <__bad_interrupt>
      5c:	0c 94 b5 08 	jmp	0x116a	; 0x116a <__bad_interrupt>
      60:	0c 94 b5 08 	jmp	0x116a	; 0x116a <__bad_interrupt>
      64:	0c 94 b5 08 	jmp	0x116a	; 0x116a <__bad_interrupt>
      68:	0c 94 b5 08 	jmp	0x116a	; 0x116a <__bad_interrupt>
      6c:	0c 94 b5 08 	jmp	0x116a	; 0x116a <__bad_interrupt>
      70:	0c 94 b5 08 	jmp	0x116a	; 0x116a <__bad_interrupt>
      74:	0c 94 b5 08 	jmp	0x116a	; 0x116a <__bad_interrupt>
      78:	0c 94 b5 08 	jmp	0x116a	; 0x116a <__bad_interrupt>
      7c:	0c 94 b5 08 	jmp	0x116a	; 0x116a <__bad_interrupt>
      80:	0c 94 b5 08 	jmp	0x116a	; 0x116a <__bad_interrupt>
      84:	0c 94 b5 08 	jmp	0x116a	; 0x116a <__bad_interrupt>
      88:	0c 94 b5 08 	jmp	0x116a	; 0x116a <__bad_interrupt>

0000008c <__trampolines_end>:
	...
      9c:	00 00       	nop
      9e:	00 10       	cpse	r0, r0
      a0:	10 10       	cpse	r1, r0
      a2:	10 10       	cpse	r1, r0
      a4:	10 10       	cpse	r1, r0
      a6:	00 00       	nop
      a8:	10 10       	cpse	r1, r0
      aa:	00 00       	nop
      ac:	00 12       	cpse	r0, r16
      ae:	24 24       	eor	r2, r4
      b0:	48 00       	.word	0x0048	; ????
	...
      be:	00 12       	cpse	r0, r16
      c0:	12 12       	cpse	r1, r18
      c2:	7e 24       	eor	r7, r14
      c4:	24 24       	eor	r2, r4
      c6:	7e 24       	eor	r7, r14
      c8:	24 24       	eor	r2, r4
      ca:	00 00       	nop
      cc:	00 00       	nop
      ce:	08 3c       	cpi	r16, 0xC8	; 200
      d0:	4a 4a       	sbci	r20, 0xAA	; 170
      d2:	48 38       	cpi	r20, 0x88	; 136
      d4:	0c 0a       	sbc	r0, r28
      d6:	0a 4a       	sbci	r16, 0xAA	; 170
      d8:	4a 3c       	cpi	r20, 0xCA	; 202
      da:	08 08       	sbc	r0, r8
      dc:	00 00       	nop
      de:	00 44       	sbci	r16, 0x40	; 64
      e0:	a4 a8       	ldd	r10, Z+52	; 0x34
      e2:	a8 b0       	in	r10, 0x08	; 8
      e4:	54 1a       	sub	r5, r20
      e6:	2a 2a       	or	r2, r26
      e8:	4a 44       	sbci	r20, 0x4A	; 74
      ea:	00 00       	nop
      ec:	00 00       	nop
      ee:	00 30       	cpi	r16, 0x00	; 0
      f0:	48 48       	sbci	r20, 0x88	; 136
      f2:	48 50       	subi	r20, 0x08	; 8
      f4:	6e a4       	ldd	r6, Y+46	; 0x2e
      f6:	94 98       	cbi	0x12, 4	; 18
      f8:	89 76       	andi	r24, 0x69	; 105
      fa:	00 00       	nop
      fc:	00 60       	ori	r16, 0x00	; 0
      fe:	20 20       	and	r2, r0
     100:	40 00       	.word	0x0040	; ????
	...
     10a:	00 00       	nop
     10c:	00 02       	muls	r16, r16
     10e:	04 08       	sbc	r0, r4
     110:	08 10       	cpse	r0, r8
     112:	10 10       	cpse	r1, r0
     114:	10 10       	cpse	r1, r0
     116:	10 08       	sbc	r1, r0
     118:	08 04       	cpc	r0, r8
     11a:	02 00       	.word	0x0002	; ????
     11c:	00 40       	sbci	r16, 0x00	; 0
     11e:	20 10       	cpse	r2, r0
     120:	10 08       	sbc	r1, r0
     122:	08 08       	sbc	r0, r8
     124:	08 08       	sbc	r0, r8
     126:	08 10       	cpse	r0, r8
     128:	10 20       	and	r1, r0
     12a:	40 00       	.word	0x0040	; ????
     12c:	00 00       	nop
     12e:	00 00       	nop
     130:	10 10       	cpse	r1, r0
     132:	d6 38       	cpi	r29, 0x86	; 134
     134:	38 d6       	rcall	.+3184   	; 0xda6 <HYBELogo+0x72a>
     136:	10 10       	cpse	r1, r0
	...
     140:	00 08       	sbc	r0, r0
     142:	08 08       	sbc	r0, r8
     144:	7f 08       	sbc	r7, r15
     146:	08 08       	sbc	r0, r8
	...
     158:	60 20       	and	r6, r0
     15a:	20 40       	sbci	r18, 0x00	; 0
	...
     164:	7e 00       	.word	0x007e	; ????
	...
     176:	00 00       	nop
     178:	60 60       	ori	r22, 0x00	; 0
     17a:	00 00       	nop
     17c:	00 00       	nop
     17e:	02 04       	cpc	r0, r2
     180:	04 04       	cpc	r0, r4
     182:	08 08       	sbc	r0, r8
     184:	10 10       	cpse	r1, r0
     186:	10 20       	and	r1, r0
     188:	20 40       	sbci	r18, 0x00	; 0
     18a:	40 00       	.word	0x0040	; ????
     18c:	00 00       	nop
     18e:	00 18       	sub	r0, r0
     190:	24 42       	sbci	r18, 0x24	; 36
     192:	42 42       	sbci	r20, 0x22	; 34
     194:	42 42       	sbci	r20, 0x22	; 34
     196:	42 42       	sbci	r20, 0x22	; 34
     198:	24 18       	sub	r2, r4
     19a:	00 00       	nop
     19c:	00 00       	nop
     19e:	00 08       	sbc	r0, r0
     1a0:	38 08       	sbc	r3, r8
     1a2:	08 08       	sbc	r0, r8
     1a4:	08 08       	sbc	r0, r8
     1a6:	08 08       	sbc	r0, r8
     1a8:	08 3e       	cpi	r16, 0xE8	; 232
     1aa:	00 00       	nop
     1ac:	00 00       	nop
     1ae:	00 3c       	cpi	r16, 0xC0	; 192
     1b0:	42 42       	sbci	r20, 0x22	; 34
     1b2:	42 02       	muls	r20, r18
     1b4:	04 08       	sbc	r0, r4
     1b6:	10 20       	and	r1, r0
     1b8:	42 7e       	andi	r20, 0xE2	; 226
     1ba:	00 00       	nop
     1bc:	00 00       	nop
     1be:	00 3c       	cpi	r16, 0xC0	; 192
     1c0:	42 42       	sbci	r20, 0x22	; 34
     1c2:	02 04       	cpc	r0, r2
     1c4:	18 04       	cpc	r1, r8
     1c6:	02 42       	sbci	r16, 0x22	; 34
     1c8:	42 3c       	cpi	r20, 0xC2	; 194
     1ca:	00 00       	nop
     1cc:	00 00       	nop
     1ce:	00 04       	cpc	r0, r0
     1d0:	0c 0c       	add	r0, r12
     1d2:	14 24       	eor	r1, r4
     1d4:	24 44       	sbci	r18, 0x44	; 68
     1d6:	7f 04       	cpc	r7, r15
     1d8:	04 1f       	adc	r16, r20
     1da:	00 00       	nop
     1dc:	00 00       	nop
     1de:	00 7e       	andi	r16, 0xE0	; 224
     1e0:	40 40       	sbci	r20, 0x00	; 0
     1e2:	40 78       	andi	r20, 0x80	; 128
     1e4:	44 02       	muls	r20, r20
     1e6:	02 42       	sbci	r16, 0x22	; 34
     1e8:	44 38       	cpi	r20, 0x84	; 132
     1ea:	00 00       	nop
     1ec:	00 00       	nop
     1ee:	00 18       	sub	r0, r0
     1f0:	24 40       	sbci	r18, 0x04	; 4
     1f2:	40 5c       	subi	r20, 0xC0	; 192
     1f4:	62 42       	sbci	r22, 0x22	; 34
     1f6:	42 42       	sbci	r20, 0x22	; 34
     1f8:	22 1c       	adc	r2, r2
     1fa:	00 00       	nop
     1fc:	00 00       	nop
     1fe:	00 7e       	andi	r16, 0xE0	; 224
     200:	42 04       	cpc	r4, r2
     202:	04 08       	sbc	r0, r4
     204:	08 10       	cpse	r0, r8
     206:	10 10       	cpse	r1, r0
     208:	10 10       	cpse	r1, r0
     20a:	00 00       	nop
     20c:	00 00       	nop
     20e:	00 3c       	cpi	r16, 0xC0	; 192
     210:	42 42       	sbci	r20, 0x22	; 34
     212:	42 24       	eor	r4, r2
     214:	18 24       	eor	r1, r8
     216:	42 42       	sbci	r20, 0x22	; 34
     218:	42 3c       	cpi	r20, 0xC2	; 194
     21a:	00 00       	nop
     21c:	00 00       	nop
     21e:	00 38       	cpi	r16, 0x80	; 128
     220:	44 42       	sbci	r20, 0x24	; 36
     222:	42 42       	sbci	r20, 0x22	; 34
     224:	46 3a       	cpi	r20, 0xA6	; 166
     226:	02 02       	muls	r16, r18
     228:	24 18       	sub	r2, r4
	...
     232:	18 18       	sub	r1, r8
     234:	00 00       	nop
     236:	00 00       	nop
     238:	18 18       	sub	r1, r8
	...
     242:	00 10       	cpse	r0, r0
     244:	00 00       	nop
     246:	00 00       	nop
     248:	00 10       	cpse	r0, r0
     24a:	10 10       	cpse	r1, r0
     24c:	00 00       	nop
     24e:	00 02       	muls	r16, r16
     250:	04 08       	sbc	r0, r4
     252:	10 20       	and	r1, r0
     254:	40 20       	and	r4, r0
     256:	10 08       	sbc	r1, r0
     258:	04 02       	muls	r16, r20
	...
     262:	7e 00       	.word	0x007e	; ????
     264:	00 7e       	andi	r16, 0xE0	; 224
	...
     26e:	00 40       	sbci	r16, 0x00	; 0
     270:	20 10       	cpse	r2, r0
     272:	08 04       	cpc	r0, r8
     274:	02 04       	cpc	r0, r2
     276:	08 10       	cpse	r0, r8
     278:	20 40       	sbci	r18, 0x00	; 0
     27a:	00 00       	nop
     27c:	00 00       	nop
     27e:	00 3c       	cpi	r16, 0xC0	; 192
     280:	42 42       	sbci	r20, 0x22	; 34
     282:	62 04       	cpc	r6, r2
     284:	08 08       	sbc	r0, r8
     286:	08 00       	.word	0x0008	; ????
     288:	18 18       	sub	r1, r8
     28a:	00 00       	nop
     28c:	00 00       	nop
     28e:	00 38       	cpi	r16, 0x80	; 128
     290:	44 5a       	subi	r20, 0xA4	; 164
     292:	aa aa       	std	Y+50, r10	; 0x32
     294:	aa aa       	std	Y+50, r10	; 0x32
     296:	aa 5c       	subi	r26, 0xCA	; 202
     298:	42 3c       	cpi	r20, 0xC2	; 194
     29a:	00 00       	nop
     29c:	00 00       	nop
     29e:	00 10       	cpse	r0, r0
     2a0:	10 18       	sub	r1, r0
     2a2:	28 28       	or	r2, r8
     2a4:	24 3c       	cpi	r18, 0xC4	; 196
     2a6:	44 42       	sbci	r20, 0x24	; 36
     2a8:	42 e7       	ldi	r20, 0x72	; 114
     2aa:	00 00       	nop
     2ac:	00 00       	nop
     2ae:	00 f8       	bld	r0, 0
     2b0:	44 44       	sbci	r20, 0x44	; 68
     2b2:	44 78       	andi	r20, 0x84	; 132
     2b4:	44 42       	sbci	r20, 0x24	; 36
     2b6:	42 42       	sbci	r20, 0x22	; 34
     2b8:	44 f8       	bld	r4, 4
     2ba:	00 00       	nop
     2bc:	00 00       	nop
     2be:	00 3e       	cpi	r16, 0xE0	; 224
     2c0:	42 42       	sbci	r20, 0x22	; 34
     2c2:	80 80       	ld	r8, Z
     2c4:	80 80       	ld	r8, Z
     2c6:	80 42       	sbci	r24, 0x20	; 32
     2c8:	44 38       	cpi	r20, 0x84	; 132
     2ca:	00 00       	nop
     2cc:	00 00       	nop
     2ce:	00 f8       	bld	r0, 0
     2d0:	44 42       	sbci	r20, 0x24	; 36
     2d2:	42 42       	sbci	r20, 0x22	; 34
     2d4:	42 42       	sbci	r20, 0x22	; 34
     2d6:	42 42       	sbci	r20, 0x22	; 34
     2d8:	44 f8       	bld	r4, 4
     2da:	00 00       	nop
     2dc:	00 00       	nop
     2de:	00 fc       	sbrc	r0, 0
     2e0:	42 48       	sbci	r20, 0x82	; 130
     2e2:	48 78       	andi	r20, 0x88	; 136
     2e4:	48 48       	sbci	r20, 0x88	; 136
     2e6:	40 42       	sbci	r20, 0x20	; 32
     2e8:	42 fc       	sbrc	r4, 2
     2ea:	00 00       	nop
     2ec:	00 00       	nop
     2ee:	00 fc       	sbrc	r0, 0
     2f0:	42 48       	sbci	r20, 0x82	; 130
     2f2:	48 78       	andi	r20, 0x88	; 136
     2f4:	48 48       	sbci	r20, 0x88	; 136
     2f6:	40 40       	sbci	r20, 0x00	; 0
     2f8:	40 e0       	ldi	r20, 0x00	; 0
     2fa:	00 00       	nop
     2fc:	00 00       	nop
     2fe:	00 3c       	cpi	r16, 0xC0	; 192
     300:	44 44       	sbci	r20, 0x44	; 68
     302:	80 80       	ld	r8, Z
     304:	80 8e       	std	Z+24, r8	; 0x18
     306:	84 44       	sbci	r24, 0x44	; 68
     308:	44 38       	cpi	r20, 0x84	; 132
     30a:	00 00       	nop
     30c:	00 00       	nop
     30e:	00 e7       	ldi	r16, 0x70	; 112
     310:	42 42       	sbci	r20, 0x22	; 34
     312:	42 42       	sbci	r20, 0x22	; 34
     314:	7e 42       	sbci	r23, 0x2E	; 46
     316:	42 42       	sbci	r20, 0x22	; 34
     318:	42 e7       	ldi	r20, 0x72	; 114
     31a:	00 00       	nop
     31c:	00 00       	nop
     31e:	00 7c       	andi	r16, 0xC0	; 192
     320:	10 10       	cpse	r1, r0
     322:	10 10       	cpse	r1, r0
     324:	10 10       	cpse	r1, r0
     326:	10 10       	cpse	r1, r0
     328:	10 7c       	andi	r17, 0xC0	; 192
     32a:	00 00       	nop
     32c:	00 00       	nop
     32e:	00 3e       	cpi	r16, 0xE0	; 224
     330:	08 08       	sbc	r0, r8
     332:	08 08       	sbc	r0, r8
     334:	08 08       	sbc	r0, r8
     336:	08 08       	sbc	r0, r8
     338:	08 08       	sbc	r0, r8
     33a:	88 f0       	brcs	.+34     	; 0x35e <__trampolines_end+0x2d2>
     33c:	00 00       	nop
     33e:	00 ee       	ldi	r16, 0xE0	; 224
     340:	44 48       	sbci	r20, 0x84	; 132
     342:	50 70       	andi	r21, 0x00	; 0
     344:	50 48       	sbci	r21, 0x80	; 128
     346:	48 44       	sbci	r20, 0x48	; 72
     348:	44 ee       	ldi	r20, 0xE4	; 228
     34a:	00 00       	nop
     34c:	00 00       	nop
     34e:	00 e0       	ldi	r16, 0x00	; 0
     350:	40 40       	sbci	r20, 0x00	; 0
     352:	40 40       	sbci	r20, 0x00	; 0
     354:	40 40       	sbci	r20, 0x00	; 0
     356:	40 40       	sbci	r20, 0x00	; 0
     358:	42 fe       	sbrs	r4, 2
     35a:	00 00       	nop
     35c:	00 00       	nop
     35e:	00 ee       	ldi	r16, 0xE0	; 224
     360:	6c 6c       	ori	r22, 0xCC	; 204
     362:	6c 6c       	ori	r22, 0xCC	; 204
     364:	6c 54       	subi	r22, 0x4C	; 76
     366:	54 54       	subi	r21, 0x44	; 68
     368:	54 d6       	rcall	.+3240   	; 0x1012 <__DATA_REGION_LENGTH__+0x12>
     36a:	00 00       	nop
     36c:	00 00       	nop
     36e:	00 c7       	rjmp	.+3584   	; 0x1170 <E2213HS091_WaiteUntilNotBusy+0x2>
     370:	62 62       	ori	r22, 0x22	; 34
     372:	52 52       	subi	r21, 0x22	; 34
     374:	4a 4a       	sbci	r20, 0xAA	; 170
     376:	4a 46       	sbci	r20, 0x6A	; 106
     378:	46 e2       	ldi	r20, 0x26	; 38
     37a:	00 00       	nop
     37c:	00 00       	nop
     37e:	00 38       	cpi	r16, 0x80	; 128
     380:	44 82       	std	Z+4, r4	; 0x04
     382:	82 82       	std	Z+2, r8	; 0x02
     384:	82 82       	std	Z+2, r8	; 0x02
     386:	82 82       	std	Z+2, r8	; 0x02
     388:	44 38       	cpi	r20, 0x84	; 132
     38a:	00 00       	nop
     38c:	00 00       	nop
     38e:	00 fc       	sbrc	r0, 0
     390:	42 42       	sbci	r20, 0x22	; 34
     392:	42 42       	sbci	r20, 0x22	; 34
     394:	7c 40       	sbci	r23, 0x0C	; 12
     396:	40 40       	sbci	r20, 0x00	; 0
     398:	40 e0       	ldi	r20, 0x00	; 0
     39a:	00 00       	nop
     39c:	00 00       	nop
     39e:	00 38       	cpi	r16, 0x80	; 128
     3a0:	44 82       	std	Z+4, r4	; 0x04
     3a2:	82 82       	std	Z+2, r8	; 0x02
     3a4:	82 82       	std	Z+2, r8	; 0x02
     3a6:	82 b2       	in	r8, 0x12	; 18
     3a8:	4c 38       	cpi	r20, 0x8C	; 140
     3aa:	06 00       	.word	0x0006	; ????
     3ac:	00 00       	nop
     3ae:	00 fc       	sbrc	r0, 0
     3b0:	42 42       	sbci	r20, 0x22	; 34
     3b2:	42 7c       	andi	r20, 0xC2	; 194
     3b4:	48 48       	sbci	r20, 0x88	; 136
     3b6:	44 44       	sbci	r20, 0x44	; 68
     3b8:	42 e3       	ldi	r20, 0x32	; 50
     3ba:	00 00       	nop
     3bc:	00 00       	nop
     3be:	00 3e       	cpi	r16, 0xE0	; 224
     3c0:	42 42       	sbci	r20, 0x22	; 34
     3c2:	40 20       	and	r4, r0
     3c4:	18 04       	cpc	r1, r8
     3c6:	02 42       	sbci	r16, 0x22	; 34
     3c8:	42 7c       	andi	r20, 0xC2	; 194
     3ca:	00 00       	nop
     3cc:	00 00       	nop
     3ce:	00 fe       	sbrs	r0, 0
     3d0:	92 10       	cpse	r9, r2
     3d2:	10 10       	cpse	r1, r0
     3d4:	10 10       	cpse	r1, r0
     3d6:	10 10       	cpse	r1, r0
     3d8:	10 38       	cpi	r17, 0x80	; 128
     3da:	00 00       	nop
     3dc:	00 00       	nop
     3de:	00 e7       	ldi	r16, 0x70	; 112
     3e0:	42 42       	sbci	r20, 0x22	; 34
     3e2:	42 42       	sbci	r20, 0x22	; 34
     3e4:	42 42       	sbci	r20, 0x22	; 34
     3e6:	42 42       	sbci	r20, 0x22	; 34
     3e8:	42 3c       	cpi	r20, 0xC2	; 194
     3ea:	00 00       	nop
     3ec:	00 00       	nop
     3ee:	00 e7       	ldi	r16, 0x70	; 112
     3f0:	42 42       	sbci	r20, 0x22	; 34
     3f2:	44 24       	eor	r4, r4
     3f4:	24 28       	or	r2, r4
     3f6:	28 18       	sub	r2, r8
     3f8:	10 10       	cpse	r1, r0
     3fa:	00 00       	nop
     3fc:	00 00       	nop
     3fe:	00 d6       	rcall	.+3072   	; 0x1000 <__DATA_REGION_LENGTH__>
     400:	54 54       	subi	r21, 0x44	; 68
     402:	54 54       	subi	r21, 0x44	; 68
     404:	54 6c       	ori	r21, 0xC4	; 196
     406:	28 28       	or	r2, r8
     408:	28 28       	or	r2, r8
     40a:	00 00       	nop
     40c:	00 00       	nop
     40e:	00 e7       	ldi	r16, 0x70	; 112
     410:	42 24       	eor	r4, r2
     412:	24 18       	sub	r2, r4
     414:	18 18       	sub	r1, r8
     416:	24 24       	eor	r2, r4
     418:	42 e7       	ldi	r20, 0x72	; 114
     41a:	00 00       	nop
     41c:	00 00       	nop
     41e:	00 ee       	ldi	r16, 0xE0	; 224
     420:	44 44       	sbci	r20, 0x44	; 68
     422:	28 28       	or	r2, r8
     424:	10 10       	cpse	r1, r0
     426:	10 10       	cpse	r1, r0
     428:	10 38       	cpi	r17, 0x80	; 128
     42a:	00 00       	nop
     42c:	00 00       	nop
     42e:	00 7e       	andi	r16, 0xE0	; 224
     430:	84 04       	cpc	r8, r4
     432:	08 08       	sbc	r0, r8
     434:	10 20       	and	r1, r0
     436:	20 42       	sbci	r18, 0x20	; 32
     438:	42 fc       	sbrc	r4, 2
     43a:	00 00       	nop
     43c:	00 1e       	adc	r0, r16
     43e:	10 10       	cpse	r1, r0
     440:	10 10       	cpse	r1, r0
     442:	10 10       	cpse	r1, r0
     444:	10 10       	cpse	r1, r0
     446:	10 10       	cpse	r1, r0
     448:	10 10       	cpse	r1, r0
     44a:	1e 00       	.word	0x001e	; ????
     44c:	00 00       	nop
     44e:	40 20       	and	r4, r0
     450:	20 20       	and	r2, r0
     452:	10 10       	cpse	r1, r0
     454:	10 08       	sbc	r1, r0
     456:	08 04       	cpc	r0, r8
     458:	04 04       	cpc	r0, r4
     45a:	02 02       	muls	r16, r18
     45c:	00 78       	andi	r16, 0x80	; 128
     45e:	08 08       	sbc	r0, r8
     460:	08 08       	sbc	r0, r8
     462:	08 08       	sbc	r0, r8
     464:	08 08       	sbc	r0, r8
     466:	08 08       	sbc	r0, r8
     468:	08 08       	sbc	r0, r8
     46a:	78 00       	.word	0x0078	; ????
     46c:	00 18       	sub	r0, r0
     46e:	24 00       	.word	0x0024	; ????
	...
     488:	00 00       	nop
     48a:	00 ff       	sbrs	r16, 0
     48c:	00 60       	ori	r16, 0x00	; 0
     48e:	10 00       	.word	0x0010	; ????
	...
     4a0:	00 00       	nop
     4a2:	00 38       	cpi	r16, 0x80	; 128
     4a4:	44 0c       	add	r4, r4
     4a6:	34 44       	sbci	r19, 0x44	; 68
     4a8:	4c 36       	cpi	r20, 0x6C	; 108
     4aa:	00 00       	nop
     4ac:	00 00       	nop
     4ae:	00 00       	nop
     4b0:	c0 40       	sbci	r28, 0x00	; 0
     4b2:	40 58       	subi	r20, 0x80	; 128
     4b4:	64 42       	sbci	r22, 0x24	; 36
     4b6:	42 42       	sbci	r20, 0x22	; 34
     4b8:	64 58       	subi	r22, 0x84	; 132
	...
     4c2:	00 1c       	adc	r0, r0
     4c4:	22 40       	sbci	r18, 0x02	; 2
     4c6:	40 40       	sbci	r20, 0x00	; 0
     4c8:	22 1c       	adc	r2, r2
     4ca:	00 00       	nop
     4cc:	00 00       	nop
     4ce:	00 00       	nop
     4d0:	06 02       	muls	r16, r22
     4d2:	02 3e       	cpi	r16, 0xE2	; 226
     4d4:	42 42       	sbci	r20, 0x22	; 34
     4d6:	42 42       	sbci	r20, 0x22	; 34
     4d8:	46 3b       	cpi	r20, 0xB6	; 182
	...
     4e2:	00 3c       	cpi	r16, 0xC0	; 192
     4e4:	42 42       	sbci	r20, 0x22	; 34
     4e6:	7e 40       	sbci	r23, 0x0E	; 14
     4e8:	42 3c       	cpi	r20, 0xC2	; 194
     4ea:	00 00       	nop
     4ec:	00 00       	nop
     4ee:	00 00       	nop
     4f0:	0c 12       	cpse	r0, r28
     4f2:	10 7c       	andi	r17, 0xC0	; 192
     4f4:	10 10       	cpse	r1, r0
     4f6:	10 10       	cpse	r1, r0
     4f8:	10 7c       	andi	r17, 0xC0	; 192
	...
     502:	00 3e       	cpi	r16, 0xE0	; 224
     504:	44 44       	sbci	r20, 0x44	; 68
     506:	38 40       	sbci	r19, 0x08	; 8
     508:	3c 42       	sbci	r19, 0x2C	; 44
     50a:	42 3c       	cpi	r20, 0xC2	; 194
     50c:	00 00       	nop
     50e:	00 00       	nop
     510:	c0 40       	sbci	r28, 0x00	; 0
     512:	40 5c       	subi	r20, 0xC0	; 192
     514:	62 42       	sbci	r22, 0x22	; 34
     516:	42 42       	sbci	r20, 0x22	; 34
     518:	42 e7       	ldi	r20, 0x72	; 114
     51a:	00 00       	nop
     51c:	00 00       	nop
     51e:	00 30       	cpi	r16, 0x00	; 0
     520:	30 00       	.word	0x0030	; ????
     522:	00 70       	andi	r16, 0x00	; 0
     524:	10 10       	cpse	r1, r0
     526:	10 10       	cpse	r1, r0
     528:	10 7c       	andi	r17, 0xC0	; 192
     52a:	00 00       	nop
     52c:	00 00       	nop
     52e:	00 0c       	add	r0, r0
     530:	0c 00       	.word	0x000c	; ????
     532:	00 1c       	adc	r0, r0
     534:	04 04       	cpc	r0, r4
     536:	04 04       	cpc	r0, r4
     538:	04 04       	cpc	r0, r4
     53a:	44 78       	andi	r20, 0x84	; 132
     53c:	00 00       	nop
     53e:	00 00       	nop
     540:	c0 40       	sbci	r28, 0x00	; 0
     542:	40 4e       	sbci	r20, 0xE0	; 224
     544:	48 50       	subi	r20, 0x08	; 8
     546:	70 48       	sbci	r23, 0x80	; 128
     548:	44 ee       	ldi	r20, 0xE4	; 228
     54a:	00 00       	nop
     54c:	00 00       	nop
     54e:	00 10       	cpse	r0, r0
     550:	70 10       	cpse	r7, r0
     552:	10 10       	cpse	r1, r0
     554:	10 10       	cpse	r1, r0
     556:	10 10       	cpse	r1, r0
     558:	10 7c       	andi	r17, 0xC0	; 192
	...
     562:	00 fe       	sbrs	r0, 0
     564:	49 49       	sbci	r20, 0x99	; 153
     566:	49 49       	sbci	r20, 0x99	; 153
     568:	49 ed       	ldi	r20, 0xD9	; 217
	...
     572:	00 dc       	rcall	.-2048   	; 0xfffffd74 <__eeprom_end+0xff7efd74>
     574:	62 42       	sbci	r22, 0x22	; 34
     576:	42 42       	sbci	r20, 0x22	; 34
     578:	42 e7       	ldi	r20, 0x72	; 114
	...
     582:	00 3c       	cpi	r16, 0xC0	; 192
     584:	42 42       	sbci	r20, 0x22	; 34
     586:	42 42       	sbci	r20, 0x22	; 34
     588:	42 3c       	cpi	r20, 0xC2	; 194
	...
     592:	00 d8       	rcall	.-4096   	; 0xfffff594 <__eeprom_end+0xff7ef594>
     594:	64 42       	sbci	r22, 0x24	; 36
     596:	42 42       	sbci	r20, 0x22	; 34
     598:	64 58       	subi	r22, 0x84	; 132
     59a:	40 e0       	ldi	r20, 0x00	; 0
     59c:	00 00       	nop
     59e:	00 00       	nop
     5a0:	00 00       	nop
     5a2:	00 1a       	sub	r0, r16
     5a4:	26 42       	sbci	r18, 0x26	; 38
     5a6:	42 42       	sbci	r20, 0x22	; 34
     5a8:	26 1a       	sub	r2, r22
     5aa:	02 07       	cpc	r16, r18
     5ac:	00 00       	nop
     5ae:	00 00       	nop
     5b0:	00 00       	nop
     5b2:	00 ee       	ldi	r16, 0xE0	; 224
     5b4:	32 20       	and	r3, r2
     5b6:	20 20       	and	r2, r0
     5b8:	20 f8       	bld	r2, 0
	...
     5c2:	00 3e       	cpi	r16, 0xE0	; 224
     5c4:	42 40       	sbci	r20, 0x02	; 2
     5c6:	3c 02       	muls	r19, r28
     5c8:	42 7c       	andi	r20, 0xC2	; 194
     5ca:	00 00       	nop
     5cc:	00 00       	nop
     5ce:	00 00       	nop
     5d0:	00 10       	cpse	r0, r0
     5d2:	10 7c       	andi	r17, 0xC0	; 192
     5d4:	10 10       	cpse	r1, r0
     5d6:	10 10       	cpse	r1, r0
     5d8:	12 0c       	add	r1, r2
	...
     5e2:	00 c6       	rjmp	.+3072   	; 0x11e4 <E2213HS091_WriteRegIndex+0x32>
     5e4:	42 42       	sbci	r20, 0x22	; 34
     5e6:	42 42       	sbci	r20, 0x22	; 34
     5e8:	46 3b       	cpi	r20, 0xB6	; 182
	...
     5f2:	00 ee       	ldi	r16, 0xE0	; 224
     5f4:	44 44       	sbci	r20, 0x44	; 68
     5f6:	28 28       	or	r2, r8
     5f8:	10 10       	cpse	r1, r0
	...
     602:	00 db       	rcall	.-2560   	; 0xfffffc04 <__eeprom_end+0xff7efc04>
     604:	89 4a       	sbci	r24, 0xA9	; 169
     606:	5a 54       	subi	r21, 0x4A	; 74
     608:	24 24       	eor	r2, r4
	...
     612:	00 76       	andi	r16, 0x60	; 96
     614:	24 18       	sub	r2, r4
     616:	18 18       	sub	r1, r8
     618:	24 6e       	ori	r18, 0xE4	; 228
	...
     622:	00 e7       	ldi	r16, 0x70	; 112
     624:	42 24       	eor	r4, r2
     626:	24 18       	sub	r2, r4
     628:	18 10       	cpse	r1, r8
     62a:	10 60       	ori	r17, 0x00	; 0
     62c:	00 00       	nop
     62e:	00 00       	nop
     630:	00 00       	nop
     632:	00 7e       	andi	r16, 0xE0	; 224
     634:	44 08       	sbc	r4, r4
     636:	10 10       	cpse	r1, r0
     638:	22 7e       	andi	r18, 0xE2	; 226
     63a:	00 00       	nop
     63c:	00 03       	mulsu	r16, r16
     63e:	04 04       	cpc	r0, r4
     640:	04 04       	cpc	r0, r4
     642:	04 04       	cpc	r0, r4
     644:	08 04       	cpc	r0, r8
     646:	04 04       	cpc	r0, r4
     648:	04 04       	cpc	r0, r4
     64a:	03 00       	.word	0x0003	; ????
     64c:	08 08       	sbc	r0, r8
     64e:	08 08       	sbc	r0, r8
     650:	08 08       	sbc	r0, r8
     652:	08 08       	sbc	r0, r8
     654:	08 08       	sbc	r0, r8
     656:	08 08       	sbc	r0, r8
     658:	08 08       	sbc	r0, r8
     65a:	08 08       	sbc	r0, r8
     65c:	00 c0       	rjmp	.+0      	; 0x65e <__LOCK_REGION_LENGTH__+0x25e>
     65e:	20 20       	and	r2, r0
     660:	20 20       	and	r2, r0
     662:	20 20       	and	r2, r0
     664:	10 20       	and	r1, r0
     666:	20 20       	and	r2, r0
     668:	20 20       	and	r2, r0
     66a:	c0 00       	.word	0x00c0	; ????
     66c:	20 5a       	subi	r18, 0xA0	; 160
     66e:	04 00       	.word	0x0004	; ????
	...

0000067c <HYBELogo>:
     67c:	ff ff ff ff ff ff ff ff ff ff ff ff ff ff ff ff     ................
     68c:	ff ff ff ff ff ff ff ff ff ff ff ff ff ff ff ff     ................
     69c:	ff ff ff ff ff ff ff ff ff ff ff ff ff ff ff ff     ................
     6ac:	ff ff ff ff ff ff ff ff ff ff ff ff ff ff ff ff     ................
     6bc:	ff ff ff ff fe 03 ff ff ff 00 ff ff ff ff ff ff     ................
     6cc:	ff fe 03 fe 01 ff 00 ff ff ff ff ff ff ff fe 03     ................
     6dc:	fe 01 ff 00 ff ff ff ff ff ff ff fe 03 fe 01 ff     ................
     6ec:	00 ff ff ff ff ff ff ff fe 03 fe 01 ff 00 ff ff     ................
     6fc:	ff ff ff ff ff fe 03 fe 01 ff 00 ff ff ff ff ff     ................
     70c:	ff ff fe 03 fe 01 ff 00 ff ff ff ff ff ff ff fe     ................
     71c:	03 fe 01 ff 00 ff ff ff ff ff ff ff fe 03 fe 01     ................
     72c:	ff 00 ff ff ff ff ff ff ff fe 03 fe 01 ff 00 ff     ................
     73c:	ff ff ff ff ff ff fe 03 fe 01 ff 00 ff ff ff ff     ................
     74c:	ff ff ff fe 03 fe 01 ff 00 ff ff ff ff ff ff ff     ................
     75c:	fe 03 fe 01 ff 00 ff ff ff ff ff ff ff fe 03 fe     ................
     76c:	01 ff 00 ff ff ff ff ff ff ff fe 03 fe 01 ff 00     ................
     77c:	ff ff ff ff ff ff ff fe 03 fe 01 ff 00 ff ff ff     ................
     78c:	ff ff ff ff fe 03 fe 01 ff 00 ff ff ff ff ff ff     ................
     79c:	ff fe 03 fe 01 ff 00 ff ff ff ff ff ff ff fe 03     ................
     7ac:	fe 01 ff 00 ff ff ff ff ff ff ff fe 03 fe 01 ff     ................
     7bc:	00 ff ff ff ff ff ff ff fe 03 fe 01 ff 00 ff ff     ................
     7cc:	ff ff ff ff ff fe 03 fe 01 ff 00 ff ff ff ff ff     ................
     7dc:	ff ff fe 03 fe 01 ff 00 ff ff ff ff ff ff ff fe     ................
     7ec:	03 fe 01 ff 00 ff ff ff ff ff ff ff fe 03 fe 01     ................
     7fc:	ff 00 ff ff ff ff ff ff ff fe 03 fe 01 ff 00 ff     ................
     80c:	ff ff ff ff ff ff fe 03 fe 01 ff 00 ff ff ff ff     ................
     81c:	ff ff ff fe 03 fe 01 ff 00 ff ff ff ff ff ff ff     ................
     82c:	fe 03 fe 01 ff 00 ff ff ff ff ff ff ff fe 03 fe     ................
     83c:	01 ff 00 ff ff ff ff ff ff ff fe 03 fe 01 ff 00     ................
     84c:	ff ff ff ff ff ff ff fe 00 00 00 00 00 ff ff ff     ................
     85c:	ff ff ff ff fe 00 00 00 00 00 ff ff ff ff ff ff     ................
     86c:	ff fe 00 00 00 00 00 ff ff ff ff ff ff ff fe 00     ................
     87c:	00 00 00 00 ff ff ff ff ff ff ff fe 00 00 00 00     ................
     88c:	00 ff ff ff ff ff ff ff fe 00 00 00 00 00 ff ff     ................
     89c:	ff ff ff ff ff fe 00 00 00 00 00 ff ff ff ff ff     ................
     8ac:	ff ff fe 00 00 00 00 00 ff ff ff ff ff ff ff ff     ................
     8bc:	ff ff ff ff ff ff ff ff ff ff ff ff ff ff ff ff     ................
     8cc:	ff ff ff ff ff ff ff ff ff ff ff ff ff ff ff ff     ................
     8dc:	ff ff ff ff ff ff ff ff ff ff ff ff ff ff ff ff     ................
     8ec:	ff ff ff ff ff ff ff ff ff ff ff ff ff ff ff ff     ................
     8fc:	ff ff ff ff ff ff ff ff ff ff ff ff ff ff ff ff     ................
     90c:	ff ff ff ff ff ff ff ff ff ff ff ff ff ff ff ff     ................
     91c:	ff ff ff ff ff ff ff ff ff ff ff ff ff ff ff ff     ................
     92c:	ff ff ff ff ff ff ff ff ff ff ff ff ff ff ff ff     ................
     93c:	ff ff ff ff ff ff ff ff ff ff ff ff ff ff ff ff     ................
     94c:	ff ff ff ff ff ff ff ff ff ff ff ff ff ff ff ff     ................
     95c:	ff ff ff ff ff ff ff ff ff ff ff ff ff ff ff ff     ................
     96c:	ff ff ff ff ff ff ff ff ff ff ff ff ff ff ff ff     ................
     97c:	ff ff ff ff ff ff ff ff ff ff ff ff ff ff ff ff     ................
     98c:	c0 00 78 00 07 ff ff ff ff ff ff ff ff 80 00 30     ..x............0
     99c:	00 03 ff ff ff ff ff ff ff ff 00 00 00 00 01 ff     ................
     9ac:	ff ff ff ff ff ff fe 00 00 00 00 01 ff ff ff ff     ................
     9bc:	ff ff ff fe 00 00 00 00 01 ff ff ff ff ff ff ff     ................
     9cc:	fe 00 00 00 00 00 ff ff ff ff ff ff ff fe 00 00     ................
     9dc:	00 00 00 ff ff ff ff ff ff ff fe 00 00 00 00 00     ................
     9ec:	ff ff ff ff ff ff ff fe 03 ff 01 ff 00 ff ff ff     ................
     9fc:	ff ff ff ff fe 03 ff 01 ff 00 ff ff ff ff ff ff     ................
     a0c:	ff fe 03 ff 01 ff 00 ff ff ff ff ff ff ff fe 03     ................
     a1c:	ff 01 ff 00 ff ff ff ff ff ff ff fe 03 ff 01 ff     ................
     a2c:	00 ff ff ff ff ff ff ff fe 03 ff 01 ff 00 ff ff     ................
     a3c:	ff ff ff ff ff fe 03 ff 01 ff 00 ff ff ff ff ff     ................
     a4c:	ff ff fe 03 ff 01 ff 00 ff ff ff ff ff ff ff fe     ................
     a5c:	03 ff 01 ff 00 ff ff ff ff ff ff ff fe 03 ff 01     ................
     a6c:	ff 00 ff ff ff ff ff ff ff fe 03 ff 01 ff 00 ff     ................
     a7c:	ff ff ff ff ff ff fe 03 ff 01 ff 00 ff ff ff ff     ................
     a8c:	ff ff ff fe 03 ff 01 ff 00 ff ff ff ff ff ff ff     ................
     a9c:	fe 03 ff 01 ff 00 ff ff ff ff ff ff ff fe 03 ff     ................
     aac:	01 ff 00 ff ff ff ff ff ff ff fe 03 ff 01 ff 00     ................
     abc:	ff ff ff ff ff ff ff fe 03 ff 01 ff 00 ff ff ff     ................
     acc:	ff ff ff ff fe 03 ff 01 ff 00 ff ff ff ff ff ff     ................
     adc:	ff fe 03 ff 01 ff 00 ff ff ff ff ff ff ff fe 03     ................
     aec:	ff 01 ff 00 ff ff ff ff ff ff ff fe 03 ff 01 ff     ................
     afc:	00 ff ff ff ff ff ff ff fe 03 ff 01 ff 00 ff ff     ................
     b0c:	ff ff ff ff ff fe 03 ff 01 ff 00 ff ff ff ff ff     ................
     b1c:	ff ff fe 03 ff 01 ff 00 ff ff ff ff ff ff ff fe     ................
     b2c:	00 00 00 00 00 ff ff ff ff ff ff ff fe 00 00 00     ................
     b3c:	00 00 ff ff ff ff ff ff ff fe 00 00 00 00 00 ff     ................
     b4c:	ff ff ff ff ff ff fe 00 00 00 00 00 ff ff ff ff     ................
     b5c:	ff ff ff fe 00 00 00 00 00 ff ff ff ff ff ff ff     ................
     b6c:	fe 00 00 00 00 00 ff ff ff ff ff ff ff fe 00 00     ................
     b7c:	00 00 00 ff ff ff ff ff ff ff fe 00 00 00 00 00     ................
     b8c:	ff ff ff ff ff ff ff ff ff ff ff ff ff ff ff ff     ................
     b9c:	ff ff ff ff ff ff ff ff ff ff ff ff ff ff ff ff     ................
     bac:	ff ff ff ff ff ff ff ff ff ff ff ff ff ff ff ff     ................
     bbc:	ff ff ff ff ff ff ff ff ff ff ff ff ff ff ff ff     ................
     bcc:	ff ff ff ff ff ff ff ff ff ff ff ff ff ff ff ff     ................
     bdc:	ff ff ff ff ff ff ff ff ff ff ff ff ff ff ff ff     ................
     bec:	ff ff ff ff ff ff ff ff ff ff ff ff ff ff ff ff     ................
     bfc:	ff ff ff ff ff ff ff ff ff ff ff ff ff ff ff ff     ................
     c0c:	ff ff ff ff ff ff ff ff ff ff ff ff ff ff ff ff     ................
     c1c:	ff ff ff ff ff ff fe ff ff ff ff ff ff ff ff ff     ................
     c2c:	ff ff ff fe 7f ff ff ff ff ff ff ff ff ff ff ff     ................
     c3c:	fe 3f ff ff ff ff ff ff ff ff ff ff ff fe 0f ff     .?..............
     c4c:	ff ff ff ff ff ff ff ff ff ff fe 07 ff ff ff ff     ................
     c5c:	ff ff ff ff ff ff ff fe 03 ff ff ff ff ff ff ff     ................
     c6c:	ff ff ff ff fe 00 ff ff ff ff ff ff ff ff ff ff     ................
     c7c:	ff fe 00 7f ff ff ff ff ff ff ff ff ff ff fe 00     ................
     c8c:	1f ff ff ff ff ff ff ff ff ff ff fe 00 0f ff ff     ................
     c9c:	ff ff ff ff ff ff ff ff ff 80 07 ff ff ff ff ff     ................
     cac:	ff ff ff ff ff ff c0 01 ff ff ff ff ff ff ff ff     ................
     cbc:	ff ff ff e0 00 ff ff ff ff ff ff ff ff ff ff ff     ................
     ccc:	f8 00 7f ff ff ff ff ff ff ff ff ff ff fc 00 1f     ................
     cdc:	ff ff ff ff ff ff ff ff ff ff fe 00 0f ff ff ff     ................
     cec:	ff ff ff ff ff ff ff ff 80 03 ff ff ff ff ff ff     ................
     cfc:	ff ff ff ff ff c0 01 ff ff ff ff ff ff ff ff ff     ................
     d0c:	ff ff f0 00 ff ff ff ff ff ff ff ff ff ff ff f8     ................
     d1c:	00 00 00 ff ff ff ff ff ff ff ff ff fc 00 00 00     ................
     d2c:	ff ff ff ff ff ff ff ff ff ff 00 00 00 ff ff ff     ................
     d3c:	ff ff ff ff ff ff ff 80 00 00 ff ff ff ff ff ff     ................
     d4c:	ff ff ff ff 00 00 00 ff ff ff ff ff ff ff ff ff     ................
     d5c:	fc 00 00 00 ff ff ff ff ff ff ff ff ff f8 00 00     ................
     d6c:	00 ff ff ff ff ff ff ff ff ff e0 00 00 00 ff ff     ................
     d7c:	ff ff ff ff ff ff ff c0 01 ff ff ff ff ff ff ff     ................
     d8c:	ff ff ff ff 80 03 ff ff ff ff ff ff ff ff ff ff     ................
     d9c:	fe 00 07 ff ff ff ff ff ff ff ff ff ff fc 00 1f     ................
     dac:	ff ff ff ff ff ff ff ff ff ff f8 00 3f ff ff ff     ............?...
     dbc:	ff ff ff ff ff ff ff e0 00 ff ff ff ff ff ff ff     ................
     dcc:	ff ff ff ff c0 01 ff ff ff ff ff ff ff ff ff ff     ................
     ddc:	ff 80 03 ff ff ff ff ff ff ff ff ff ff fe 00 0f     ................
     dec:	ff ff ff ff ff ff ff ff ff ff fe 00 1f ff ff ff     ................
     dfc:	ff ff ff ff ff ff ff fe 00 3f ff ff ff ff ff ff     .........?......
     e0c:	ff ff ff ff fe 00 ff ff ff ff ff ff ff ff ff ff     ................
     e1c:	ff fe 01 ff ff ff ff ff ff ff ff ff ff ff fe 03     ................
     e2c:	ff ff ff ff ff ff ff ff ff ff ff fe 0f ff ff ff     ................
     e3c:	ff ff ff ff ff ff ff ff fe 1f ff ff ff ff ff ff     ................
     e4c:	ff ff ff ff ff fe 3f ff ff ff ff ff ff ff ff ff     ......?.........
     e5c:	ff ff fe ff ff ff ff ff ff ff ff ff ff ff ff ff     ................
     e6c:	ff ff ff ff ff ff ff ff ff ff ff ff ff ff ff ff     ................
     e7c:	ff ff ff ff ff ff ff ff ff ff ff ff ff ff ff ff     ................
     e8c:	ff ff ff ff ff ff ff ff ff ff ff ff ff ff ff ff     ................
     e9c:	ff ff ff ff ff ff ff ff ff ff ff ff ff ff ff ff     ................
     eac:	ff ff ff ff ff ff ff ff ff ff ff ff ff ff ff ff     ................
     ebc:	ff ff ff ff ff ff ff ff ff ff ff ff ff ff ff ff     ................
     ecc:	ff ff ff ff ff ff ff ff ff ff ff ff ff ff ff ff     ................
     edc:	ff ff ff ff ff ff ff ff ff ff ff ff ff ff ff ff     ................
     eec:	ff ff ff ff ff ff ff ff ff ff ff ff ff ff ff ff     ................
     efc:	ff ff ff ff ff ff ff ff ff ff ff ff ff ff ff ff     ................
     f0c:	ff ff ff ff ff ff ff ff fe 00 00 00 00 00 ff ff     ................
     f1c:	ff ff ff ff ff fe 00 00 00 00 00 ff ff ff ff ff     ................
     f2c:	ff ff fe 00 00 00 00 00 ff ff ff ff ff ff ff fe     ................
     f3c:	00 00 00 00 00 ff ff ff ff ff ff ff fe 00 00 00     ................
     f4c:	00 00 ff ff ff ff ff ff ff fe 00 00 00 00 00 ff     ................
     f5c:	ff ff ff ff ff ff fe 00 00 00 00 00 ff ff ff ff     ................
     f6c:	ff ff ff fe 00 00 00 00 00 ff ff ff ff ff ff ff     ................
     f7c:	ff ff fe 01 ff ff ff ff ff ff ff ff ff ff ff fe     ................
     f8c:	01 ff ff ff ff ff ff ff ff ff ff ff fe 01 ff ff     ................
     f9c:	ff ff ff ff ff ff ff ff ff fe 01 ff ff ff ff ff     ................
     fac:	ff ff ff ff ff ff fe 01 ff ff ff ff ff ff ff ff     ................
     fbc:	ff ff ff fe 01 ff ff ff ff ff ff ff ff ff ff ff     ................
     fcc:	fe 01 ff ff ff ff ff ff ff ff ff ff ff fe 01 ff     ................
     fdc:	ff ff ff ff ff ff ff ff ff ff fe 01 ff ff ff ff     ................
     fec:	ff ff ff ff ff ff ff fe 01 ff ff ff ff ff ff ff     ................
     ffc:	ff ff ff ff fe 01 ff ff ff ff ff ff ff ff ff ff     ................
    100c:	ff fe 01 ff ff ff ff ff ff ff ff ff ff ff fe 01     ................
    101c:	ff ff ff ff ff ff ff ff ff ff ff fe 01 ff ff ff     ................
    102c:	ff ff ff ff ff ff ff ff fe 01 ff ff ff ff ff ff     ................
    103c:	ff ff ff ff ff fe 01 ff ff ff ff ff ff ff ff ff     ................
    104c:	ff ff fe 01 ff ff ff ff ff ff ff ff ff ff ff fe     ................
    105c:	01 ff ff ff ff ff ff ff ff ff ff ff fe 01 ff ff     ................
    106c:	ff ff ff ff ff ff ff ff ff fe 01 ff ff ff ff ff     ................
    107c:	ff ff ff ff ff ff fe 01 ff ff ff ff ff ff ff ff     ................
    108c:	ff ff ff fe 01 ff ff ff ff ff ff ff ff ff ff ff     ................
    109c:	fe 01 ff ff ff ff ff ff ff ff ff ff ff fe 01 ff     ................
    10ac:	ff ff ff ff ff ff ff ff fe 00 00 00 00 00 ff ff     ................
    10bc:	ff ff ff ff ff fe 00 00 00 00 00 ff ff ff ff ff     ................
    10cc:	ff ff fe 00 00 00 00 00 ff ff ff ff ff ff ff fe     ................
    10dc:	00 00 00 00 00 ff ff ff ff ff ff ff fe 00 00 00     ................
    10ec:	00 00 ff ff ff ff ff ff ff fe 00 00 00 00 00 ff     ................
    10fc:	ff ff ff ff ff ff fe 00 00 00 00 00 ff ff ff ff     ................
    110c:	ff ff ff fe 00 00 00 00 00 ff ff ff ff ff ff ff     ................
    111c:	ff ff ff ff ff ff ff ff ff ff ff ff ff ff ff ff     ................
    112c:	ff ff ff ff ff ff ff ff ff ff ff ff ff ff ff ff     ................
    113c:	ff ff ff ff                                         ....

00001140 <__ctors_end>:
    1140:	11 24       	eor	r1, r1
    1142:	1f be       	out	0x3f, r1	; 63
    1144:	cf ef       	ldi	r28, 0xFF	; 255
    1146:	d0 e1       	ldi	r29, 0x10	; 16
    1148:	de bf       	out	0x3e, r29	; 62
    114a:	cd bf       	out	0x3d, r28	; 61

0000114c <__do_copy_data>:
    114c:	1c e0       	ldi	r17, 0x0C	; 12
    114e:	a0 e0       	ldi	r26, 0x00	; 0
    1150:	b1 e0       	ldi	r27, 0x01	; 1
    1152:	ee e0       	ldi	r30, 0x0E	; 14
    1154:	f7 e1       	ldi	r31, 0x17	; 23
    1156:	00 e0       	ldi	r16, 0x00	; 0
    1158:	0b bf       	out	0x3b, r16	; 59
    115a:	02 c0       	rjmp	.+4      	; 0x1160 <__do_copy_data+0x14>
    115c:	07 90       	elpm	r0, Z+
    115e:	0d 92       	st	X+, r0
    1160:	a2 32       	cpi	r26, 0x22	; 34
    1162:	b1 07       	cpc	r27, r17
    1164:	d9 f7       	brne	.-10     	; 0x115c <__do_copy_data+0x10>
    1166:	b8 d2       	rcall	.+1392   	; 0x16d8 <main>
    1168:	d0 c2       	rjmp	.+1440   	; 0x170a <_exit>

0000116a <__bad_interrupt>:
    116a:	0c 94 00 00 	jmp	0	; 0x0 <__vectors>

0000116e <E2213HS091_WaiteUntilNotBusy>:
    116e:	79 d2       	rcall	.+1266   	; 0x1662 <readPin_BUSY>
    1170:	01 97       	sbiw	r24, 0x01	; 1
    1172:	31 f0       	breq	.+12     	; 0x1180 <E2213HS091_WaiteUntilNotBusy+0x12>
    1174:	6a e0       	ldi	r22, 0x0A	; 10
    1176:	70 e0       	ldi	r23, 0x00	; 0
    1178:	80 e0       	ldi	r24, 0x00	; 0
    117a:	90 e0       	ldi	r25, 0x00	; 0
    117c:	f8 d1       	rcall	.+1008   	; 0x156e <HAL_Delay>
    117e:	f7 cf       	rjmp	.-18     	; 0x116e <E2213HS091_WaiteUntilNotBusy>
    1180:	08 95       	ret

00001182 <E2213HS091_WriteData8>:
    1182:	cf 93       	push	r28
    1184:	c8 2f       	mov	r28, r24
    1186:	81 e0       	ldi	r24, 0x01	; 1
    1188:	90 e0       	ldi	r25, 0x00	; 0
    118a:	5f d2       	rcall	.+1214   	; 0x164a <setPin_DC>
    118c:	80 e0       	ldi	r24, 0x00	; 0
    118e:	90 e0       	ldi	r25, 0x00	; 0
    1190:	56 d2       	rcall	.+1196   	; 0x163e <setPin_CS>
    1192:	64 ef       	ldi	r22, 0xF4	; 244
    1194:	71 e0       	ldi	r23, 0x01	; 1
    1196:	80 e0       	ldi	r24, 0x00	; 0
    1198:	90 e0       	ldi	r25, 0x00	; 0
    119a:	da d1       	rcall	.+948    	; 0x1550 <HAL_Delay_us>
    119c:	8c 2f       	mov	r24, r28
    119e:	4e d2       	rcall	.+1180   	; 0x163c <SPI_master_write>
    11a0:	64 ef       	ldi	r22, 0xF4	; 244
    11a2:	71 e0       	ldi	r23, 0x01	; 1
    11a4:	80 e0       	ldi	r24, 0x00	; 0
    11a6:	90 e0       	ldi	r25, 0x00	; 0
    11a8:	d3 d1       	rcall	.+934    	; 0x1550 <HAL_Delay_us>
    11aa:	81 e0       	ldi	r24, 0x01	; 1
    11ac:	90 e0       	ldi	r25, 0x00	; 0
    11ae:	cf 91       	pop	r28
    11b0:	46 c2       	rjmp	.+1164   	; 0x163e <setPin_CS>

000011b2 <E2213HS091_WriteRegIndex>:
    11b2:	cf 93       	push	r28
    11b4:	c8 2f       	mov	r28, r24
    11b6:	80 e0       	ldi	r24, 0x00	; 0
    11b8:	90 e0       	ldi	r25, 0x00	; 0
    11ba:	47 d2       	rcall	.+1166   	; 0x164a <setPin_DC>
    11bc:	80 e0       	ldi	r24, 0x00	; 0
    11be:	90 e0       	ldi	r25, 0x00	; 0
    11c0:	3e d2       	rcall	.+1148   	; 0x163e <setPin_CS>
    11c2:	64 ef       	ldi	r22, 0xF4	; 244
    11c4:	71 e0       	ldi	r23, 0x01	; 1
    11c6:	80 e0       	ldi	r24, 0x00	; 0
    11c8:	90 e0       	ldi	r25, 0x00	; 0
    11ca:	c2 d1       	rcall	.+900    	; 0x1550 <HAL_Delay_us>
    11cc:	8c 2f       	mov	r24, r28
    11ce:	36 d2       	rcall	.+1132   	; 0x163c <SPI_master_write>
    11d0:	64 ef       	ldi	r22, 0xF4	; 244
    11d2:	71 e0       	ldi	r23, 0x01	; 1
    11d4:	80 e0       	ldi	r24, 0x00	; 0
    11d6:	90 e0       	ldi	r25, 0x00	; 0
    11d8:	bb d1       	rcall	.+886    	; 0x1550 <HAL_Delay_us>
    11da:	81 e0       	ldi	r24, 0x01	; 1
    11dc:	90 e0       	ldi	r25, 0x00	; 0
    11de:	2f d2       	rcall	.+1118   	; 0x163e <setPin_CS>
    11e0:	81 e0       	ldi	r24, 0x01	; 1
    11e2:	90 e0       	ldi	r25, 0x00	; 0
    11e4:	cf 91       	pop	r28
    11e6:	31 c2       	rjmp	.+1122   	; 0x164a <setPin_DC>

000011e8 <E2213HS091_WriteMultipleData>:
    11e8:	8f 92       	push	r8
    11ea:	9f 92       	push	r9
    11ec:	af 92       	push	r10
    11ee:	bf 92       	push	r11
    11f0:	cf 92       	push	r12
    11f2:	df 92       	push	r13
    11f4:	ef 92       	push	r14
    11f6:	ff 92       	push	r15
    11f8:	cf 93       	push	r28
    11fa:	df 93       	push	r29
    11fc:	7c 01       	movw	r14, r24
    11fe:	4a 01       	movw	r8, r20
    1200:	5b 01       	movw	r10, r22
    1202:	80 e0       	ldi	r24, 0x00	; 0
    1204:	90 e0       	ldi	r25, 0x00	; 0
    1206:	1b d2       	rcall	.+1078   	; 0x163e <setPin_CS>
    1208:	64 ef       	ldi	r22, 0xF4	; 244
    120a:	71 e0       	ldi	r23, 0x01	; 1
    120c:	80 e0       	ldi	r24, 0x00	; 0
    120e:	90 e0       	ldi	r25, 0x00	; 0
    1210:	9f d1       	rcall	.+830    	; 0x1550 <HAL_Delay_us>
    1212:	e7 01       	movw	r28, r14
    1214:	c1 2c       	mov	r12, r1
    1216:	d1 2c       	mov	r13, r1
    1218:	76 01       	movw	r14, r12
    121a:	c8 14       	cp	r12, r8
    121c:	d9 04       	cpc	r13, r9
    121e:	ea 04       	cpc	r14, r10
    1220:	fb 04       	cpc	r15, r11
    1222:	41 f0       	breq	.+16     	; 0x1234 <E2213HS091_WriteMultipleData+0x4c>
    1224:	89 91       	ld	r24, Y+
    1226:	0a d2       	rcall	.+1044   	; 0x163c <SPI_master_write>
    1228:	8f ef       	ldi	r24, 0xFF	; 255
    122a:	c8 1a       	sub	r12, r24
    122c:	d8 0a       	sbc	r13, r24
    122e:	e8 0a       	sbc	r14, r24
    1230:	f8 0a       	sbc	r15, r24
    1232:	f3 cf       	rjmp	.-26     	; 0x121a <E2213HS091_WriteMultipleData+0x32>
    1234:	64 ef       	ldi	r22, 0xF4	; 244
    1236:	71 e0       	ldi	r23, 0x01	; 1
    1238:	80 e0       	ldi	r24, 0x00	; 0
    123a:	90 e0       	ldi	r25, 0x00	; 0
    123c:	89 d1       	rcall	.+786    	; 0x1550 <HAL_Delay_us>
    123e:	81 e0       	ldi	r24, 0x01	; 1
    1240:	90 e0       	ldi	r25, 0x00	; 0
    1242:	df 91       	pop	r29
    1244:	cf 91       	pop	r28
    1246:	ff 90       	pop	r15
    1248:	ef 90       	pop	r14
    124a:	df 90       	pop	r13
    124c:	cf 90       	pop	r12
    124e:	bf 90       	pop	r11
    1250:	af 90       	pop	r10
    1252:	9f 90       	pop	r9
    1254:	8f 90       	pop	r8
    1256:	f3 c1       	rjmp	.+998    	; 0x163e <setPin_CS>

00001258 <E2213HS091_Init>:
    1258:	cf 93       	push	r28
    125a:	df 93       	push	r29
    125c:	00 d0       	rcall	.+0      	; 0x125e <E2213HS091_Init+0x6>
    125e:	cd b7       	in	r28, 0x3d	; 61
    1260:	de b7       	in	r29, 0x3e	; 62
    1262:	8f ec       	ldi	r24, 0xCF	; 207
    1264:	89 83       	std	Y+1, r24	; 0x01
    1266:	8d e8       	ldi	r24, 0x8D	; 141
    1268:	8a 83       	std	Y+2, r24	; 0x02
    126a:	65 e0       	ldi	r22, 0x05	; 5
    126c:	70 e0       	ldi	r23, 0x00	; 0
    126e:	80 e0       	ldi	r24, 0x00	; 0
    1270:	90 e0       	ldi	r25, 0x00	; 0
    1272:	7d d1       	rcall	.+762    	; 0x156e <HAL_Delay>
    1274:	81 e0       	ldi	r24, 0x01	; 1
    1276:	90 e0       	ldi	r25, 0x00	; 0
    1278:	ee d1       	rcall	.+988    	; 0x1656 <setPin_RST>
    127a:	65 e0       	ldi	r22, 0x05	; 5
    127c:	70 e0       	ldi	r23, 0x00	; 0
    127e:	80 e0       	ldi	r24, 0x00	; 0
    1280:	90 e0       	ldi	r25, 0x00	; 0
    1282:	75 d1       	rcall	.+746    	; 0x156e <HAL_Delay>
    1284:	80 e0       	ldi	r24, 0x00	; 0
    1286:	90 e0       	ldi	r25, 0x00	; 0
    1288:	e6 d1       	rcall	.+972    	; 0x1656 <setPin_RST>
    128a:	6a e0       	ldi	r22, 0x0A	; 10
    128c:	70 e0       	ldi	r23, 0x00	; 0
    128e:	80 e0       	ldi	r24, 0x00	; 0
    1290:	90 e0       	ldi	r25, 0x00	; 0
    1292:	6d d1       	rcall	.+730    	; 0x156e <HAL_Delay>
    1294:	81 e0       	ldi	r24, 0x01	; 1
    1296:	90 e0       	ldi	r25, 0x00	; 0
    1298:	de d1       	rcall	.+956    	; 0x1656 <setPin_RST>
    129a:	65 e0       	ldi	r22, 0x05	; 5
    129c:	70 e0       	ldi	r23, 0x00	; 0
    129e:	80 e0       	ldi	r24, 0x00	; 0
    12a0:	90 e0       	ldi	r25, 0x00	; 0
    12a2:	65 d1       	rcall	.+714    	; 0x156e <HAL_Delay>
    12a4:	81 e0       	ldi	r24, 0x01	; 1
    12a6:	90 e0       	ldi	r25, 0x00	; 0
    12a8:	ca d1       	rcall	.+916    	; 0x163e <setPin_CS>
    12aa:	61 e0       	ldi	r22, 0x01	; 1
    12ac:	70 e0       	ldi	r23, 0x00	; 0
    12ae:	80 e0       	ldi	r24, 0x00	; 0
    12b0:	90 e0       	ldi	r25, 0x00	; 0
    12b2:	5d d1       	rcall	.+698    	; 0x156e <HAL_Delay>
    12b4:	80 e0       	ldi	r24, 0x00	; 0
    12b6:	7d df       	rcall	.-262    	; 0x11b2 <E2213HS091_WriteRegIndex>
    12b8:	8e e0       	ldi	r24, 0x0E	; 14
    12ba:	63 df       	rcall	.-314    	; 0x1182 <E2213HS091_WriteData8>
    12bc:	58 df       	rcall	.-336    	; 0x116e <E2213HS091_WaiteUntilNotBusy>
    12be:	85 ee       	ldi	r24, 0xE5	; 229
    12c0:	78 df       	rcall	.-272    	; 0x11b2 <E2213HS091_WriteRegIndex>
    12c2:	89 e1       	ldi	r24, 0x19	; 25
    12c4:	5e df       	rcall	.-324    	; 0x1182 <E2213HS091_WriteData8>
    12c6:	80 ee       	ldi	r24, 0xE0	; 224
    12c8:	74 df       	rcall	.-280    	; 0x11b2 <E2213HS091_WriteRegIndex>
    12ca:	82 e0       	ldi	r24, 0x02	; 2
    12cc:	5a df       	rcall	.-332    	; 0x1182 <E2213HS091_WriteData8>
    12ce:	80 e0       	ldi	r24, 0x00	; 0
    12d0:	70 df       	rcall	.-288    	; 0x11b2 <E2213HS091_WriteRegIndex>
    12d2:	42 e0       	ldi	r20, 0x02	; 2
    12d4:	50 e0       	ldi	r21, 0x00	; 0
    12d6:	60 e0       	ldi	r22, 0x00	; 0
    12d8:	70 e0       	ldi	r23, 0x00	; 0
    12da:	ce 01       	movw	r24, r28
    12dc:	01 96       	adiw	r24, 0x01	; 1
    12de:	84 df       	rcall	.-248    	; 0x11e8 <E2213HS091_WriteMultipleData>
    12e0:	0f 90       	pop	r0
    12e2:	0f 90       	pop	r0
    12e4:	df 91       	pop	r29
    12e6:	cf 91       	pop	r28
    12e8:	08 95       	ret

000012ea <E2213HS091_ReverseFrame>:
    12ea:	e0 e0       	ldi	r30, 0x00	; 0
    12ec:	f1 e0       	ldi	r31, 0x01	; 1
    12ee:	80 81       	ld	r24, Z
    12f0:	80 95       	com	r24
    12f2:	81 93       	st	Z+, r24
    12f4:	8b e0       	ldi	r24, 0x0B	; 11
    12f6:	e4 3c       	cpi	r30, 0xC4	; 196
    12f8:	f8 07       	cpc	r31, r24
    12fa:	c9 f7       	brne	.-14     	; 0x12ee <E2213HS091_ReverseFrame+0x4>
    12fc:	08 95       	ret

000012fe <E2213HS091_SetHYBELogoFrame>:
    12fe:	ec e7       	ldi	r30, 0x7C	; 124
    1300:	f6 e0       	ldi	r31, 0x06	; 6
    1302:	a0 e0       	ldi	r26, 0x00	; 0
    1304:	b1 e0       	ldi	r27, 0x01	; 1
    1306:	84 91       	lpm	r24, Z
    1308:	8d 93       	st	X+, r24
    130a:	31 96       	adiw	r30, 0x01	; 1
    130c:	8b e0       	ldi	r24, 0x0B	; 11
    130e:	a4 3c       	cpi	r26, 0xC4	; 196
    1310:	b8 07       	cpc	r27, r24
    1312:	c9 f7       	brne	.-14     	; 0x1306 <E2213HS091_SetHYBELogoFrame+0x8>
    1314:	08 95       	ret

00001316 <E2213HS091_SendImageData>:
    1316:	cf 93       	push	r28
    1318:	df 93       	push	r29
    131a:	80 e1       	ldi	r24, 0x10	; 16
    131c:	4a df       	rcall	.-364    	; 0x11b2 <E2213HS091_WriteRegIndex>
    131e:	44 ec       	ldi	r20, 0xC4	; 196
    1320:	5a e0       	ldi	r21, 0x0A	; 10
    1322:	60 e0       	ldi	r22, 0x00	; 0
    1324:	70 e0       	ldi	r23, 0x00	; 0
    1326:	80 e0       	ldi	r24, 0x00	; 0
    1328:	91 e0       	ldi	r25, 0x01	; 1
    132a:	5e df       	rcall	.-324    	; 0x11e8 <E2213HS091_WriteMultipleData>
    132c:	83 e1       	ldi	r24, 0x13	; 19
    132e:	41 df       	rcall	.-382    	; 0x11b2 <E2213HS091_WriteRegIndex>
    1330:	80 e0       	ldi	r24, 0x00	; 0
    1332:	90 e0       	ldi	r25, 0x00	; 0
    1334:	84 d1       	rcall	.+776    	; 0x163e <setPin_CS>
    1336:	64 ef       	ldi	r22, 0xF4	; 244
    1338:	71 e0       	ldi	r23, 0x01	; 1
    133a:	80 e0       	ldi	r24, 0x00	; 0
    133c:	90 e0       	ldi	r25, 0x00	; 0
    133e:	08 d1       	rcall	.+528    	; 0x1550 <HAL_Delay_us>
    1340:	c0 e0       	ldi	r28, 0x00	; 0
    1342:	d0 e0       	ldi	r29, 0x00	; 0
    1344:	80 e0       	ldi	r24, 0x00	; 0
    1346:	7a d1       	rcall	.+756    	; 0x163c <SPI_master_write>
    1348:	21 96       	adiw	r28, 0x01	; 1
    134a:	c4 3c       	cpi	r28, 0xC4	; 196
    134c:	8a e0       	ldi	r24, 0x0A	; 10
    134e:	d8 07       	cpc	r29, r24
    1350:	c9 f7       	brne	.-14     	; 0x1344 <E2213HS091_SendImageData+0x2e>
    1352:	64 ef       	ldi	r22, 0xF4	; 244
    1354:	71 e0       	ldi	r23, 0x01	; 1
    1356:	80 e0       	ldi	r24, 0x00	; 0
    1358:	90 e0       	ldi	r25, 0x00	; 0
    135a:	fa d0       	rcall	.+500    	; 0x1550 <HAL_Delay_us>
    135c:	81 e0       	ldi	r24, 0x01	; 1
    135e:	90 e0       	ldi	r25, 0x00	; 0
    1360:	df 91       	pop	r29
    1362:	cf 91       	pop	r28
    1364:	6c c1       	rjmp	.+728    	; 0x163e <setPin_CS>

00001366 <E2213HS091_SendUpdateCmd>:
    1366:	03 df       	rcall	.-506    	; 0x116e <E2213HS091_WaiteUntilNotBusy>
    1368:	84 e0       	ldi	r24, 0x04	; 4
    136a:	23 df       	rcall	.-442    	; 0x11b2 <E2213HS091_WriteRegIndex>
    136c:	80 e0       	ldi	r24, 0x00	; 0
    136e:	09 df       	rcall	.-494    	; 0x1182 <E2213HS091_WriteData8>
    1370:	fe de       	rcall	.-516    	; 0x116e <E2213HS091_WaiteUntilNotBusy>
    1372:	82 e1       	ldi	r24, 0x12	; 18
    1374:	1e df       	rcall	.-452    	; 0x11b2 <E2213HS091_WriteRegIndex>
    1376:	80 e0       	ldi	r24, 0x00	; 0
    1378:	04 df       	rcall	.-504    	; 0x1182 <E2213HS091_WriteData8>
    137a:	f9 ce       	rjmp	.-526    	; 0x116e <E2213HS091_WaiteUntilNotBusy>

0000137c <E2213HS091_TurnOffDCDC>:
    137c:	82 e0       	ldi	r24, 0x02	; 2
    137e:	19 df       	rcall	.-462    	; 0x11b2 <E2213HS091_WriteRegIndex>
    1380:	f6 ce       	rjmp	.-532    	; 0x116e <E2213HS091_WaiteUntilNotBusy>

00001382 <E2213HS091_ClearFullScreen>:
    1382:	81 30       	cpi	r24, 0x01	; 1
    1384:	29 f0       	breq	.+10     	; 0x1390 <E2213HS091_ClearFullScreen+0xe>
    1386:	82 30       	cpi	r24, 0x02	; 2
    1388:	31 f4       	brne	.+12     	; 0x1396 <E2213HS091_ClearFullScreen+0x14>
    138a:	55 e5       	ldi	r21, 0x55	; 85
    138c:	4a ea       	ldi	r20, 0xAA	; 170
    138e:	05 c0       	rjmp	.+10     	; 0x139a <E2213HS091_ClearFullScreen+0x18>
    1390:	5f ef       	ldi	r21, 0xFF	; 255
    1392:	4f ef       	ldi	r20, 0xFF	; 255
    1394:	02 c0       	rjmp	.+4      	; 0x139a <E2213HS091_ClearFullScreen+0x18>
    1396:	50 e0       	ldi	r21, 0x00	; 0
    1398:	40 e0       	ldi	r20, 0x00	; 0
    139a:	20 e0       	ldi	r18, 0x00	; 0
    139c:	31 e0       	ldi	r19, 0x01	; 1
    139e:	80 e0       	ldi	r24, 0x00	; 0
    13a0:	90 e0       	ldi	r25, 0x00	; 0
    13a2:	80 fd       	sbrc	r24, 0
    13a4:	02 c0       	rjmp	.+4      	; 0x13aa <E2213HS091_ClearFullScreen+0x28>
    13a6:	a5 2f       	mov	r26, r21
    13a8:	01 c0       	rjmp	.+2      	; 0x13ac <E2213HS091_ClearFullScreen+0x2a>
    13aa:	a4 2f       	mov	r26, r20
    13ac:	f9 01       	movw	r30, r18
    13ae:	60 e0       	ldi	r22, 0x00	; 0
    13b0:	70 e0       	ldi	r23, 0x00	; 0
    13b2:	a1 93       	st	Z+, r26
    13b4:	6f 5f       	subi	r22, 0xFF	; 255
    13b6:	7f 4f       	sbci	r23, 0xFF	; 255
    13b8:	6d 30       	cpi	r22, 0x0D	; 13
    13ba:	71 05       	cpc	r23, r1
    13bc:	d1 f7       	brne	.-12     	; 0x13b2 <E2213HS091_ClearFullScreen+0x30>
    13be:	01 96       	adiw	r24, 0x01	; 1
    13c0:	23 5f       	subi	r18, 0xF3	; 243
    13c2:	3f 4f       	sbci	r19, 0xFF	; 255
    13c4:	84 3d       	cpi	r24, 0xD4	; 212
    13c6:	91 05       	cpc	r25, r1
    13c8:	61 f7       	brne	.-40     	; 0x13a2 <E2213HS091_ClearFullScreen+0x20>
    13ca:	08 95       	ret

000013cc <E2213HS091_DrawPoint>:
    13cc:	68 36       	cpi	r22, 0x68	; 104
    13ce:	68 f5       	brcc	.+90     	; 0x142a <E2213HS091_DrawPoint+0x5e>
    13d0:	93 ed       	ldi	r25, 0xD3	; 211
    13d2:	98 1b       	sub	r25, r24
    13d4:	89 2f       	mov	r24, r25
    13d6:	94 3d       	cpi	r25, 0xD4	; 212
    13d8:	40 f5       	brcc	.+80     	; 0x142a <E2213HS091_DrawPoint+0x5e>
    13da:	e6 2f       	mov	r30, r22
    13dc:	e6 95       	lsr	r30
    13de:	e6 95       	lsr	r30
    13e0:	e6 95       	lsr	r30
    13e2:	f0 e0       	ldi	r31, 0x00	; 0
    13e4:	9d e0       	ldi	r25, 0x0D	; 13
    13e6:	89 9f       	mul	r24, r25
    13e8:	e0 0d       	add	r30, r0
    13ea:	f1 1d       	adc	r31, r1
    13ec:	11 24       	eor	r1, r1
    13ee:	60 95       	com	r22
    13f0:	67 70       	andi	r22, 0x07	; 7
    13f2:	44 23       	and	r20, r20
    13f4:	19 f0       	breq	.+6      	; 0x13fc <E2213HS091_DrawPoint+0x30>
    13f6:	41 30       	cpi	r20, 0x01	; 1
    13f8:	69 f0       	breq	.+26     	; 0x1414 <E2213HS091_DrawPoint+0x48>
    13fa:	08 95       	ret
    13fc:	e0 50       	subi	r30, 0x00	; 0
    13fe:	ff 4f       	sbci	r31, 0xFF	; 255
    1400:	81 e0       	ldi	r24, 0x01	; 1
    1402:	90 e0       	ldi	r25, 0x00	; 0
    1404:	01 c0       	rjmp	.+2      	; 0x1408 <E2213HS091_DrawPoint+0x3c>
    1406:	88 0f       	add	r24, r24
    1408:	6a 95       	dec	r22
    140a:	ea f7       	brpl	.-6      	; 0x1406 <E2213HS091_DrawPoint+0x3a>
    140c:	80 95       	com	r24
    140e:	90 81       	ld	r25, Z
    1410:	89 23       	and	r24, r25
    1412:	0a c0       	rjmp	.+20     	; 0x1428 <E2213HS091_DrawPoint+0x5c>
    1414:	e0 50       	subi	r30, 0x00	; 0
    1416:	ff 4f       	sbci	r31, 0xFF	; 255
    1418:	81 e0       	ldi	r24, 0x01	; 1
    141a:	90 e0       	ldi	r25, 0x00	; 0
    141c:	01 c0       	rjmp	.+2      	; 0x1420 <E2213HS091_DrawPoint+0x54>
    141e:	88 0f       	add	r24, r24
    1420:	6a 95       	dec	r22
    1422:	ea f7       	brpl	.-6      	; 0x141e <E2213HS091_DrawPoint+0x52>
    1424:	90 81       	ld	r25, Z
    1426:	89 2b       	or	r24, r25
    1428:	80 83       	st	Z, r24
    142a:	08 95       	ret

0000142c <E2213HS091_DrawLine>:
    142c:	ef 92       	push	r14
    142e:	ff 92       	push	r15
    1430:	0f 93       	push	r16
    1432:	1f 93       	push	r17
    1434:	cf 93       	push	r28
    1436:	df 93       	push	r29
    1438:	d8 2f       	mov	r29, r24
    143a:	16 2f       	mov	r17, r22
    143c:	e4 2e       	mov	r14, r20
    143e:	f2 2e       	mov	r15, r18
    1440:	c0 e0       	ldi	r28, 0x00	; 0
    1442:	ce 15       	cp	r28, r14
    1444:	71 f0       	breq	.+28     	; 0x1462 <E2213HS091_DrawLine+0x36>
    1446:	40 2f       	mov	r20, r16
    1448:	61 2f       	mov	r22, r17
    144a:	8d 2f       	mov	r24, r29
    144c:	bf df       	rcall	.-130    	; 0x13cc <E2213HS091_DrawPoint>
    144e:	ff 20       	and	r15, r15
    1450:	29 f0       	breq	.+10     	; 0x145c <E2213HS091_DrawLine+0x30>
    1452:	81 e0       	ldi	r24, 0x01	; 1
    1454:	f8 12       	cpse	r15, r24
    1456:	03 c0       	rjmp	.+6      	; 0x145e <E2213HS091_DrawLine+0x32>
    1458:	1f 5f       	subi	r17, 0xFF	; 255
    145a:	01 c0       	rjmp	.+2      	; 0x145e <E2213HS091_DrawLine+0x32>
    145c:	df 5f       	subi	r29, 0xFF	; 255
    145e:	cf 5f       	subi	r28, 0xFF	; 255
    1460:	f0 cf       	rjmp	.-32     	; 0x1442 <E2213HS091_DrawLine+0x16>
    1462:	df 91       	pop	r29
    1464:	cf 91       	pop	r28
    1466:	1f 91       	pop	r17
    1468:	0f 91       	pop	r16
    146a:	ff 90       	pop	r15
    146c:	ef 90       	pop	r14
    146e:	08 95       	ret

00001470 <E2213HS091_ShowChar>:
    1470:	8f 92       	push	r8
    1472:	9f 92       	push	r9
    1474:	af 92       	push	r10
    1476:	bf 92       	push	r11
    1478:	cf 92       	push	r12
    147a:	df 92       	push	r13
    147c:	ef 92       	push	r14
    147e:	ff 92       	push	r15
    1480:	0f 93       	push	r16
    1482:	1f 93       	push	r17
    1484:	cf 93       	push	r28
    1486:	df 93       	push	r29
    1488:	21 11       	cpse	r18, r1
    148a:	29 c0       	rjmp	.+82     	; 0x14de <E2213HS091_ShowChar+0x6e>
    148c:	a0 2e       	mov	r10, r16
    148e:	b6 2e       	mov	r11, r22
    1490:	08 2f       	mov	r16, r24
    1492:	40 52       	subi	r20, 0x20	; 32
    1494:	80 e1       	ldi	r24, 0x10	; 16
    1496:	48 9f       	mul	r20, r24
    1498:	e0 01       	movw	r28, r0
    149a:	11 24       	eor	r1, r1
    149c:	c1 2c       	mov	r12, r1
    149e:	d1 2c       	mov	r13, r1
    14a0:	88 e0       	ldi	r24, 0x08	; 8
    14a2:	88 2e       	mov	r8, r24
    14a4:	80 0e       	add	r8, r16
    14a6:	9b 2c       	mov	r9, r11
    14a8:	9c 0c       	add	r9, r12
    14aa:	fe 01       	movw	r30, r28
    14ac:	ec 0d       	add	r30, r12
    14ae:	fd 1d       	adc	r31, r13
    14b0:	e4 57       	subi	r30, 0x74	; 116
    14b2:	ff 4f       	sbci	r31, 0xFF	; 255
    14b4:	14 91       	lpm	r17, Z
    14b6:	f0 2e       	mov	r15, r16
    14b8:	17 ff       	sbrs	r17, 7
    14ba:	02 c0       	rjmp	.+4      	; 0x14c0 <E2213HS091_ShowChar+0x50>
    14bc:	4a 2d       	mov	r20, r10
    14be:	01 c0       	rjmp	.+2      	; 0x14c2 <E2213HS091_ShowChar+0x52>
    14c0:	4e 2d       	mov	r20, r14
    14c2:	69 2d       	mov	r22, r9
    14c4:	8f 2d       	mov	r24, r15
    14c6:	82 df       	rcall	.-252    	; 0x13cc <E2213HS091_DrawPoint>
    14c8:	11 0f       	add	r17, r17
    14ca:	f3 94       	inc	r15
    14cc:	8f 10       	cpse	r8, r15
    14ce:	f4 cf       	rjmp	.-24     	; 0x14b8 <E2213HS091_ShowChar+0x48>
    14d0:	8f ef       	ldi	r24, 0xFF	; 255
    14d2:	c8 1a       	sub	r12, r24
    14d4:	d8 0a       	sbc	r13, r24
    14d6:	80 e1       	ldi	r24, 0x10	; 16
    14d8:	c8 16       	cp	r12, r24
    14da:	d1 04       	cpc	r13, r1
    14dc:	21 f7       	brne	.-56     	; 0x14a6 <E2213HS091_ShowChar+0x36>
    14de:	88 e0       	ldi	r24, 0x08	; 8
    14e0:	df 91       	pop	r29
    14e2:	cf 91       	pop	r28
    14e4:	1f 91       	pop	r17
    14e6:	0f 91       	pop	r16
    14e8:	ff 90       	pop	r15
    14ea:	ef 90       	pop	r14
    14ec:	df 90       	pop	r13
    14ee:	cf 90       	pop	r12
    14f0:	bf 90       	pop	r11
    14f2:	af 90       	pop	r10
    14f4:	9f 90       	pop	r9
    14f6:	8f 90       	pop	r8
    14f8:	08 95       	ret

000014fa <E2213HS091_ShowCharStr>:
    14fa:	bf 92       	push	r11
    14fc:	cf 92       	push	r12
    14fe:	df 92       	push	r13
    1500:	ef 92       	push	r14
    1502:	ff 92       	push	r15
    1504:	0f 93       	push	r16
    1506:	1f 93       	push	r17
    1508:	cf 93       	push	r28
    150a:	df 93       	push	r29
    150c:	c8 2f       	mov	r28, r24
    150e:	d6 2f       	mov	r29, r22
    1510:	12 2f       	mov	r17, r18
    1512:	f0 2e       	mov	r15, r16
    1514:	be 2c       	mov	r11, r14
    1516:	6a 01       	movw	r12, r20
    1518:	f6 01       	movw	r30, r12
    151a:	41 91       	ld	r20, Z+
    151c:	6f 01       	movw	r12, r30
    151e:	80 ee       	ldi	r24, 0xE0	; 224
    1520:	84 0f       	add	r24, r20
    1522:	8f 35       	cpi	r24, 0x5F	; 95
    1524:	40 f4       	brcc	.+16     	; 0x1536 <E2213HS091_ShowCharStr+0x3c>
    1526:	eb 2c       	mov	r14, r11
    1528:	0f 2d       	mov	r16, r15
    152a:	21 2f       	mov	r18, r17
    152c:	6d 2f       	mov	r22, r29
    152e:	8c 2f       	mov	r24, r28
    1530:	9f df       	rcall	.-194    	; 0x1470 <E2213HS091_ShowChar>
    1532:	c8 0f       	add	r28, r24
    1534:	f1 cf       	rjmp	.-30     	; 0x1518 <E2213HS091_ShowCharStr+0x1e>
    1536:	41 11       	cpse	r20, r1
    1538:	ef cf       	rjmp	.-34     	; 0x1518 <E2213HS091_ShowCharStr+0x1e>
    153a:	8c 2f       	mov	r24, r28
    153c:	df 91       	pop	r29
    153e:	cf 91       	pop	r28
    1540:	1f 91       	pop	r17
    1542:	0f 91       	pop	r16
    1544:	ff 90       	pop	r15
    1546:	ef 90       	pop	r14
    1548:	df 90       	pop	r13
    154a:	cf 90       	pop	r12
    154c:	bf 90       	pop	r11
    154e:	08 95       	ret

00001550 <HAL_Delay_us>:
    1550:	61 15       	cp	r22, r1
    1552:	71 05       	cpc	r23, r1
    1554:	81 05       	cpc	r24, r1
    1556:	91 05       	cpc	r25, r1
    1558:	49 f0       	breq	.+18     	; 0x156c <HAL_Delay_us+0x1c>
    155a:	22 e0       	ldi	r18, 0x02	; 2
    155c:	2a 95       	dec	r18
    155e:	f1 f7       	brne	.-4      	; 0x155c <HAL_Delay_us+0xc>
    1560:	00 c0       	rjmp	.+0      	; 0x1562 <HAL_Delay_us+0x12>
    1562:	61 50       	subi	r22, 0x01	; 1
    1564:	71 09       	sbc	r23, r1
    1566:	81 09       	sbc	r24, r1
    1568:	91 09       	sbc	r25, r1
    156a:	f2 cf       	rjmp	.-28     	; 0x1550 <HAL_Delay_us>
    156c:	08 95       	ret

0000156e <HAL_Delay>:
    156e:	61 15       	cp	r22, r1
    1570:	71 05       	cpc	r23, r1
    1572:	81 05       	cpc	r24, r1
    1574:	91 05       	cpc	r25, r1
    1576:	59 f0       	breq	.+22     	; 0x158e <HAL_Delay+0x20>
    1578:	ef ec       	ldi	r30, 0xCF	; 207
    157a:	f7 e0       	ldi	r31, 0x07	; 7
    157c:	31 97       	sbiw	r30, 0x01	; 1
    157e:	f1 f7       	brne	.-4      	; 0x157c <HAL_Delay+0xe>
    1580:	00 c0       	rjmp	.+0      	; 0x1582 <HAL_Delay+0x14>
    1582:	00 00       	nop
    1584:	61 50       	subi	r22, 0x01	; 1
    1586:	71 09       	sbc	r23, r1
    1588:	81 09       	sbc	r24, r1
    158a:	91 09       	sbc	r25, r1
    158c:	f0 cf       	rjmp	.-32     	; 0x156e <HAL_Delay>
    158e:	08 95       	ret

00001590 <init_spi_master>:
    1590:	83 e8       	ldi	r24, 0x83	; 131
    1592:	87 bb       	out	0x17, r24	; 23
    1594:	c1 98       	cbi	0x18, 1	; 24
    1596:	c7 98       	cbi	0x18, 7	; 24
    1598:	08 95       	ret

0000159a <init_GPIO>:
    159a:	80 ed       	ldi	r24, 0xD0	; 208
    159c:	82 b9       	out	0x02, r24	; 2
    159e:	1c 98       	cbi	0x03, 4	; 3
    15a0:	1f 9a       	sbi	0x03, 7	; 3
    15a2:	1e 9a       	sbi	0x03, 6	; 3
    15a4:	c0 9a       	sbi	0x18, 0	; 24
    15a6:	08 95       	ret

000015a8 <spiTransferByte_c>:
    15a8:	c1 98       	cbi	0x18, 1	; 24
    15aa:	00 00       	nop
    15ac:	87 ff       	sbrs	r24, 7
    15ae:	02 c0       	rjmp	.+4      	; 0x15b4 <spiTransferByte_c+0xc>
    15b0:	c7 9a       	sbi	0x18, 7	; 24
    15b2:	01 c0       	rjmp	.+2      	; 0x15b6 <spiTransferByte_c+0xe>
    15b4:	c7 98       	cbi	0x18, 7	; 24
    15b6:	c1 9a       	sbi	0x18, 1	; 24
    15b8:	00 00       	nop
    15ba:	c1 98       	cbi	0x18, 1	; 24
    15bc:	00 00       	nop
    15be:	86 ff       	sbrs	r24, 6
    15c0:	02 c0       	rjmp	.+4      	; 0x15c6 <spiTransferByte_c+0x1e>
    15c2:	c7 9a       	sbi	0x18, 7	; 24
    15c4:	01 c0       	rjmp	.+2      	; 0x15c8 <spiTransferByte_c+0x20>
    15c6:	c7 98       	cbi	0x18, 7	; 24
    15c8:	c1 9a       	sbi	0x18, 1	; 24
    15ca:	00 00       	nop
    15cc:	c1 98       	cbi	0x18, 1	; 24
    15ce:	00 00       	nop
    15d0:	85 ff       	sbrs	r24, 5
    15d2:	02 c0       	rjmp	.+4      	; 0x15d8 <spiTransferByte_c+0x30>
    15d4:	c7 9a       	sbi	0x18, 7	; 24
    15d6:	01 c0       	rjmp	.+2      	; 0x15da <spiTransferByte_c+0x32>
    15d8:	c7 98       	cbi	0x18, 7	; 24
    15da:	c1 9a       	sbi	0x18, 1	; 24
    15dc:	00 00       	nop
    15de:	c1 98       	cbi	0x18, 1	; 24
    15e0:	00 00       	nop
    15e2:	84 ff       	sbrs	r24, 4
    15e4:	02 c0       	rjmp	.+4      	; 0x15ea <spiTransferByte_c+0x42>
    15e6:	c7 9a       	sbi	0x18, 7	; 24
    15e8:	01 c0       	rjmp	.+2      	; 0x15ec <spiTransferByte_c+0x44>
    15ea:	c7 98       	cbi	0x18, 7	; 24
    15ec:	c1 9a       	sbi	0x18, 1	; 24
    15ee:	00 00       	nop
    15f0:	c1 98       	cbi	0x18, 1	; 24
    15f2:	00 00       	nop
    15f4:	83 ff       	sbrs	r24, 3
    15f6:	02 c0       	rjmp	.+4      	; 0x15fc <spiTransferByte_c+0x54>
    15f8:	c7 9a       	sbi	0x18, 7	; 24
    15fa:	01 c0       	rjmp	.+2      	; 0x15fe <spiTransferByte_c+0x56>
    15fc:	c7 98       	cbi	0x18, 7	; 24
    15fe:	c1 9a       	sbi	0x18, 1	; 24
    1600:	00 00       	nop
    1602:	c1 98       	cbi	0x18, 1	; 24
    1604:	00 00       	nop
    1606:	82 ff       	sbrs	r24, 2
    1608:	02 c0       	rjmp	.+4      	; 0x160e <spiTransferByte_c+0x66>
    160a:	c7 9a       	sbi	0x18, 7	; 24
    160c:	01 c0       	rjmp	.+2      	; 0x1610 <spiTransferByte_c+0x68>
    160e:	c7 98       	cbi	0x18, 7	; 24
    1610:	c1 9a       	sbi	0x18, 1	; 24
    1612:	00 00       	nop
    1614:	c1 98       	cbi	0x18, 1	; 24
    1616:	00 00       	nop
    1618:	81 ff       	sbrs	r24, 1
    161a:	02 c0       	rjmp	.+4      	; 0x1620 <spiTransferByte_c+0x78>
    161c:	c7 9a       	sbi	0x18, 7	; 24
    161e:	01 c0       	rjmp	.+2      	; 0x1622 <spiTransferByte_c+0x7a>
    1620:	c7 98       	cbi	0x18, 7	; 24
    1622:	c1 9a       	sbi	0x18, 1	; 24
    1624:	00 00       	nop
    1626:	c1 98       	cbi	0x18, 1	; 24
    1628:	00 00       	nop
    162a:	80 ff       	sbrs	r24, 0
    162c:	02 c0       	rjmp	.+4      	; 0x1632 <spiTransferByte_c+0x8a>
    162e:	c7 9a       	sbi	0x18, 7	; 24
    1630:	01 c0       	rjmp	.+2      	; 0x1634 <spiTransferByte_c+0x8c>
    1632:	c7 98       	cbi	0x18, 7	; 24
    1634:	c1 9a       	sbi	0x18, 1	; 24
    1636:	00 00       	nop
    1638:	c1 98       	cbi	0x18, 1	; 24
    163a:	08 95       	ret

0000163c <SPI_master_write>:
    163c:	b5 cf       	rjmp	.-150    	; 0x15a8 <spiTransferByte_c>

0000163e <setPin_CS>:
    163e:	89 2b       	or	r24, r25
    1640:	11 f0       	breq	.+4      	; 0x1646 <setPin_CS+0x8>
    1642:	c0 9a       	sbi	0x18, 0	; 24
    1644:	08 95       	ret
    1646:	c0 98       	cbi	0x18, 0	; 24
    1648:	08 95       	ret

0000164a <setPin_DC>:
    164a:	89 2b       	or	r24, r25
    164c:	11 f0       	breq	.+4      	; 0x1652 <setPin_DC+0x8>
    164e:	1f 9a       	sbi	0x03, 7	; 3
    1650:	08 95       	ret
    1652:	1f 98       	cbi	0x03, 7	; 3
    1654:	08 95       	ret

00001656 <setPin_RST>:
    1656:	89 2b       	or	r24, r25
    1658:	11 f0       	breq	.+4      	; 0x165e <setPin_RST+0x8>
    165a:	1e 9a       	sbi	0x03, 6	; 3
    165c:	08 95       	ret
    165e:	1e 98       	cbi	0x03, 6	; 3
    1660:	08 95       	ret

00001662 <readPin_BUSY>:
    1662:	81 b1       	in	r24, 0x01	; 1
    1664:	85 fb       	bst	r24, 5
    1666:	88 27       	eor	r24, r24
    1668:	80 f9       	bld	r24, 0
    166a:	90 e0       	ldi	r25, 0x00	; 0
    166c:	08 95       	ret

0000166e <showLogo>:
    166e:	47 de       	rcall	.-882    	; 0x12fe <E2213HS091_SetHYBELogoFrame>
    1670:	52 de       	rcall	.-860    	; 0x1316 <E2213HS091_SendImageData>
    1672:	79 ce       	rjmp	.-782    	; 0x1366 <E2213HS091_SendUpdateCmd>

00001674 <example_text>:
    1674:	ef 92       	push	r14
    1676:	0f 93       	push	r16
    1678:	81 e0       	ldi	r24, 0x01	; 1
    167a:	83 de       	rcall	.-762    	; 0x1382 <E2213HS091_ClearFullScreen>
    167c:	00 e0       	ldi	r16, 0x00	; 0
    167e:	20 e0       	ldi	r18, 0x00	; 0
    1680:	44 ed       	ldi	r20, 0xD4	; 212
    1682:	61 e0       	ldi	r22, 0x01	; 1
    1684:	80 e0       	ldi	r24, 0x00	; 0
    1686:	d2 de       	rcall	.-604    	; 0x142c <E2213HS091_DrawLine>
    1688:	20 e0       	ldi	r18, 0x00	; 0
    168a:	44 ed       	ldi	r20, 0xD4	; 212
    168c:	63 e0       	ldi	r22, 0x03	; 3
    168e:	80 e0       	ldi	r24, 0x00	; 0
    1690:	cd de       	rcall	.-614    	; 0x142c <E2213HS091_DrawLine>
    1692:	ee 24       	eor	r14, r14
    1694:	e3 94       	inc	r14
    1696:	20 e0       	ldi	r18, 0x00	; 0
    1698:	4e ec       	ldi	r20, 0xCE	; 206
    169a:	5b e0       	ldi	r21, 0x0B	; 11
    169c:	6a e0       	ldi	r22, 0x0A	; 10
    169e:	80 e0       	ldi	r24, 0x00	; 0
    16a0:	2c df       	rcall	.-424    	; 0x14fa <E2213HS091_ShowCharStr>
    16a2:	20 e0       	ldi	r18, 0x00	; 0
    16a4:	49 e0       	ldi	r20, 0x09	; 9
    16a6:	5c e0       	ldi	r21, 0x0C	; 12
    16a8:	6e e1       	ldi	r22, 0x1E	; 30
    16aa:	80 e0       	ldi	r24, 0x00	; 0
    16ac:	26 df       	rcall	.-436    	; 0x14fa <E2213HS091_ShowCharStr>
    16ae:	20 e0       	ldi	r18, 0x00	; 0
    16b0:	45 e1       	ldi	r20, 0x15	; 21
    16b2:	5c e0       	ldi	r21, 0x0C	; 12
    16b4:	62 e3       	ldi	r22, 0x32	; 50
    16b6:	80 e0       	ldi	r24, 0x00	; 0
    16b8:	20 df       	rcall	.-448    	; 0x14fa <E2213HS091_ShowCharStr>
    16ba:	20 e0       	ldi	r18, 0x00	; 0
    16bc:	44 ed       	ldi	r20, 0xD4	; 212
    16be:	63 e6       	ldi	r22, 0x63	; 99
    16c0:	80 e0       	ldi	r24, 0x00	; 0
    16c2:	b4 de       	rcall	.-664    	; 0x142c <E2213HS091_DrawLine>
    16c4:	20 e0       	ldi	r18, 0x00	; 0
    16c6:	44 ed       	ldi	r20, 0xD4	; 212
    16c8:	65 e6       	ldi	r22, 0x65	; 101
    16ca:	80 e0       	ldi	r24, 0x00	; 0
    16cc:	af de       	rcall	.-674    	; 0x142c <E2213HS091_DrawLine>
    16ce:	23 de       	rcall	.-954    	; 0x1316 <E2213HS091_SendImageData>
    16d0:	4a de       	rcall	.-876    	; 0x1366 <E2213HS091_SendUpdateCmd>
    16d2:	0f 91       	pop	r16
    16d4:	ef 90       	pop	r14
    16d6:	52 ce       	rjmp	.-860    	; 0x137c <E2213HS091_TurnOffDCDC>

000016d8 <main>:
    16d8:	5b df       	rcall	.-330    	; 0x1590 <init_spi_master>
    16da:	5f df       	rcall	.-322    	; 0x159a <init_GPIO>
    16dc:	bd dd       	rcall	.-1158   	; 0x1258 <E2213HS091_Init>
    16de:	c7 df       	rcall	.-114    	; 0x166e <showLogo>
    16e0:	68 eb       	ldi	r22, 0xB8	; 184
    16e2:	7b e0       	ldi	r23, 0x0B	; 11
    16e4:	80 e0       	ldi	r24, 0x00	; 0
    16e6:	90 e0       	ldi	r25, 0x00	; 0
    16e8:	42 df       	rcall	.-380    	; 0x156e <HAL_Delay>
    16ea:	c4 df       	rcall	.-120    	; 0x1674 <example_text>
    16ec:	68 eb       	ldi	r22, 0xB8	; 184
    16ee:	7b e0       	ldi	r23, 0x0B	; 11
    16f0:	80 e0       	ldi	r24, 0x00	; 0
    16f2:	90 e0       	ldi	r25, 0x00	; 0
    16f4:	3c df       	rcall	.-392    	; 0x156e <HAL_Delay>
    16f6:	f9 dd       	rcall	.-1038   	; 0x12ea <E2213HS091_ReverseFrame>
    16f8:	0e de       	rcall	.-996    	; 0x1316 <E2213HS091_SendImageData>
    16fa:	35 de       	rcall	.-918    	; 0x1366 <E2213HS091_SendUpdateCmd>
    16fc:	3f de       	rcall	.-898    	; 0x137c <E2213HS091_TurnOffDCDC>
    16fe:	68 eb       	ldi	r22, 0xB8	; 184
    1700:	7b e0       	ldi	r23, 0x0B	; 11
    1702:	80 e0       	ldi	r24, 0x00	; 0
    1704:	90 e0       	ldi	r25, 0x00	; 0
    1706:	33 df       	rcall	.-410    	; 0x156e <HAL_Delay>
    1708:	ea cf       	rjmp	.-44     	; 0x16de <main+0x6>

0000170a <_exit>:
    170a:	f8 94       	cli

0000170c <__stop_program>:
    170c:	ff cf       	rjmp	.-2      	; 0x170c <__stop_program>
